
/home/danilo/projects/mvm-mmap-multiversioning/application/prog:     file format elf64-x86-64


Disassembly of section .init:

0000000000001000 <_init>:
    1000:	f3 0f 1e fa          	endbr64
    1004:	48 83 ec 08          	sub    $0x8,%rsp
    1008:	48 8b 05 d9 1f 05 00 	mov    0x51fd9(%rip),%rax        # 52fe8 <__gmon_start__@Base>
    100f:	48 85 c0             	test   %rax,%rax
    1012:	74 02                	je     1016 <_init+0x16>
    1014:	ff d0                	call   *%rax
    1016:	48 83 c4 08          	add    $0x8,%rsp
    101a:	c3                   	ret

Disassembly of section .plt:

0000000000001020 <free@plt-0x10>:
    1020:	ff 35 a2 1e 05 00    	push   0x51ea2(%rip)        # 52ec8 <_GLOBAL_OFFSET_TABLE_+0x8>
    1026:	ff 25 a4 1e 05 00    	jmp    *0x51ea4(%rip)        # 52ed0 <_GLOBAL_OFFSET_TABLE_+0x10>
    102c:	0f 1f 40 00          	nopl   0x0(%rax)

0000000000001030 <free@plt>:
    1030:	ff 25 a2 1e 05 00    	jmp    *0x51ea2(%rip)        # 52ed8 <free@GLIBC_2.2.5>
    1036:	68 00 00 00 00       	push   $0x0
    103b:	e9 e0 ff ff ff       	jmp    1020 <_init+0x20>

0000000000001040 <abort@plt>:
    1040:	ff 25 9a 1e 05 00    	jmp    *0x51e9a(%rip)        # 52ee0 <abort@GLIBC_2.2.5>
    1046:	68 01 00 00 00       	push   $0x1
    104b:	e9 d0 ff ff ff       	jmp    1020 <_init+0x20>

0000000000001050 <puts@plt>:
    1050:	ff 25 92 1e 05 00    	jmp    *0x51e92(%rip)        # 52ee8 <puts@GLIBC_2.2.5>
    1056:	68 02 00 00 00       	push   $0x2
    105b:	e9 c0 ff ff ff       	jmp    1020 <_init+0x20>

0000000000001060 <pthread_rwlock_wrlock@plt>:
    1060:	ff 25 8a 1e 05 00    	jmp    *0x51e8a(%rip)        # 52ef0 <pthread_rwlock_wrlock@GLIBC_2.34>
    1066:	68 03 00 00 00       	push   $0x3
    106b:	e9 b0 ff ff ff       	jmp    1020 <_init+0x20>

0000000000001070 <fclose@plt>:
    1070:	ff 25 82 1e 05 00    	jmp    *0x51e82(%rip)        # 52ef8 <fclose@GLIBC_2.2.5>
    1076:	68 04 00 00 00       	push   $0x4
    107b:	e9 a0 ff ff ff       	jmp    1020 <_init+0x20>

0000000000001080 <strlen@plt>:
    1080:	ff 25 7a 1e 05 00    	jmp    *0x51e7a(%rip)        # 52f00 <strlen@GLIBC_2.2.5>
    1086:	68 05 00 00 00       	push   $0x5
    108b:	e9 90 ff ff ff       	jmp    1020 <_init+0x20>

0000000000001090 <__stack_chk_fail@plt>:
    1090:	ff 25 72 1e 05 00    	jmp    *0x51e72(%rip)        # 52f08 <__stack_chk_fail@GLIBC_2.4>
    1096:	68 06 00 00 00       	push   $0x6
    109b:	e9 80 ff ff ff       	jmp    1020 <_init+0x20>

00000000000010a0 <mmap@plt>:
    10a0:	ff 25 6a 1e 05 00    	jmp    *0x51e6a(%rip)        # 52f10 <mmap@GLIBC_2.2.5>
    10a6:	68 07 00 00 00       	push   $0x7
    10ab:	e9 70 ff ff ff       	jmp    1020 <_init+0x20>

00000000000010b0 <strchr@plt>:
    10b0:	ff 25 62 1e 05 00    	jmp    *0x51e62(%rip)        # 52f18 <strchr@GLIBC_2.2.5>
    10b6:	68 08 00 00 00       	push   $0x8
    10bb:	e9 60 ff ff ff       	jmp    1020 <_init+0x20>

00000000000010c0 <printf@plt>:
    10c0:	ff 25 5a 1e 05 00    	jmp    *0x51e5a(%rip)        # 52f20 <printf@GLIBC_2.2.5>
    10c6:	68 09 00 00 00       	push   $0x9
    10cb:	e9 50 ff ff ff       	jmp    1020 <_init+0x20>

00000000000010d0 <pthread_rwlock_rdlock@plt>:
    10d0:	ff 25 52 1e 05 00    	jmp    *0x51e52(%rip)        # 52f28 <pthread_rwlock_rdlock@GLIBC_2.34>
    10d6:	68 0a 00 00 00       	push   $0xa
    10db:	e9 40 ff ff ff       	jmp    1020 <_init+0x20>

00000000000010e0 <fgets@plt>:
    10e0:	ff 25 4a 1e 05 00    	jmp    *0x51e4a(%rip)        # 52f30 <fgets@GLIBC_2.2.5>
    10e6:	68 0b 00 00 00       	push   $0xb
    10eb:	e9 30 ff ff ff       	jmp    1020 <_init+0x20>

00000000000010f0 <calloc@plt>:
    10f0:	ff 25 42 1e 05 00    	jmp    *0x51e42(%rip)        # 52f38 <calloc@GLIBC_2.2.5>
    10f6:	68 0c 00 00 00       	push   $0xc
    10fb:	e9 20 ff ff ff       	jmp    1020 <_init+0x20>

0000000000001100 <strcmp@plt>:
    1100:	ff 25 3a 1e 05 00    	jmp    *0x51e3a(%rip)        # 52f40 <strcmp@GLIBC_2.2.5>
    1106:	68 0d 00 00 00       	push   $0xd
    110b:	e9 10 ff ff ff       	jmp    1020 <_init+0x20>

0000000000001110 <syscall@plt>:
    1110:	ff 25 32 1e 05 00    	jmp    *0x51e32(%rip)        # 52f48 <syscall@GLIBC_2.2.5>
    1116:	68 0e 00 00 00       	push   $0xe
    111b:	e9 00 ff ff ff       	jmp    1020 <_init+0x20>

0000000000001120 <strtol@plt>:
    1120:	ff 25 2a 1e 05 00    	jmp    *0x51e2a(%rip)        # 52f50 <strtol@GLIBC_2.2.5>
    1126:	68 0f 00 00 00       	push   $0xf
    112b:	e9 f0 fe ff ff       	jmp    1020 <_init+0x20>

0000000000001130 <memcpy@plt>:
    1130:	ff 25 22 1e 05 00    	jmp    *0x51e22(%rip)        # 52f58 <memcpy@GLIBC_2.14>
    1136:	68 10 00 00 00       	push   $0x10
    113b:	e9 e0 fe ff ff       	jmp    1020 <_init+0x20>

0000000000001140 <fflush@plt>:
    1140:	ff 25 1a 1e 05 00    	jmp    *0x51e1a(%rip)        # 52f60 <fflush@GLIBC_2.2.5>
    1146:	68 11 00 00 00       	push   $0x11
    114b:	e9 d0 fe ff ff       	jmp    1020 <_init+0x20>

0000000000001150 <fseek@plt>:
    1150:	ff 25 12 1e 05 00    	jmp    *0x51e12(%rip)        # 52f68 <fseek@GLIBC_2.2.5>
    1156:	68 12 00 00 00       	push   $0x12
    115b:	e9 c0 fe ff ff       	jmp    1020 <_init+0x20>

0000000000001160 <pthread_rwlock_unlock@plt>:
    1160:	ff 25 0a 1e 05 00    	jmp    *0x51e0a(%rip)        # 52f70 <pthread_rwlock_unlock@GLIBC_2.34>
    1166:	68 13 00 00 00       	push   $0x13
    116b:	e9 b0 fe ff ff       	jmp    1020 <_init+0x20>

0000000000001170 <__strcpy_chk@plt>:
    1170:	ff 25 02 1e 05 00    	jmp    *0x51e02(%rip)        # 52f78 <__strcpy_chk@GLIBC_2.3.4>
    1176:	68 14 00 00 00       	push   $0x14
    117b:	e9 a0 fe ff ff       	jmp    1020 <_init+0x20>

0000000000001180 <__printf_chk@plt>:
    1180:	ff 25 fa 1d 05 00    	jmp    *0x51dfa(%rip)        # 52f80 <__printf_chk@GLIBC_2.3.4>
    1186:	68 15 00 00 00       	push   $0x15
    118b:	e9 90 fe ff ff       	jmp    1020 <_init+0x20>

0000000000001190 <pthread_create@plt>:
    1190:	ff 25 f2 1d 05 00    	jmp    *0x51df2(%rip)        # 52f88 <pthread_create@GLIBC_2.34>
    1196:	68 16 00 00 00       	push   $0x16
    119b:	e9 80 fe ff ff       	jmp    1020 <_init+0x20>

00000000000011a0 <fopen@plt>:
    11a0:	ff 25 ea 1d 05 00    	jmp    *0x51dea(%rip)        # 52f90 <fopen@GLIBC_2.2.5>
    11a6:	68 17 00 00 00       	push   $0x17
    11ab:	e9 70 fe ff ff       	jmp    1020 <_init+0x20>

00000000000011b0 <strtok@plt>:
    11b0:	ff 25 e2 1d 05 00    	jmp    *0x51de2(%rip)        # 52f98 <strtok@GLIBC_2.2.5>
    11b6:	68 18 00 00 00       	push   $0x18
    11bb:	e9 60 fe ff ff       	jmp    1020 <_init+0x20>

00000000000011c0 <strtoul@plt>:
    11c0:	ff 25 da 1d 05 00    	jmp    *0x51dda(%rip)        # 52fa0 <strtoul@GLIBC_2.2.5>
    11c6:	68 19 00 00 00       	push   $0x19
    11cb:	e9 50 fe ff ff       	jmp    1020 <_init+0x20>

00000000000011d0 <exit@plt>:
    11d0:	ff 25 d2 1d 05 00    	jmp    *0x51dd2(%rip)        # 52fa8 <exit@GLIBC_2.2.5>
    11d6:	68 1a 00 00 00       	push   $0x1a
    11db:	e9 40 fe ff ff       	jmp    1020 <_init+0x20>

00000000000011e0 <fwrite@plt>:
    11e0:	ff 25 ca 1d 05 00    	jmp    *0x51dca(%rip)        # 52fb0 <fwrite@GLIBC_2.2.5>
    11e6:	68 1b 00 00 00       	push   $0x1b
    11eb:	e9 30 fe ff ff       	jmp    1020 <_init+0x20>

00000000000011f0 <__fprintf_chk@plt>:
    11f0:	ff 25 c2 1d 05 00    	jmp    *0x51dc2(%rip)        # 52fb8 <__fprintf_chk@GLIBC_2.3.4>
    11f6:	68 1c 00 00 00       	push   $0x1c
    11fb:	e9 20 fe ff ff       	jmp    1020 <_init+0x20>

0000000000001200 <posix_memalign@plt>:
    1200:	ff 25 ba 1d 05 00    	jmp    *0x51dba(%rip)        # 52fc0 <posix_memalign@GLIBC_2.2.5>
    1206:	68 1d 00 00 00       	push   $0x1d
    120b:	e9 10 fe ff ff       	jmp    1020 <_init+0x20>

0000000000001210 <pthread_join@plt>:
    1210:	ff 25 b2 1d 05 00    	jmp    *0x51db2(%rip)        # 52fc8 <pthread_join@GLIBC_2.34>
    1216:	68 1e 00 00 00       	push   $0x1e
    121b:	e9 00 fe ff ff       	jmp    1020 <_init+0x20>

0000000000001220 <strstr@plt>:
    1220:	ff 25 aa 1d 05 00    	jmp    *0x51daa(%rip)        # 52fd0 <strstr@GLIBC_2.2.5>
    1226:	68 1f 00 00 00       	push   $0x1f
    122b:	e9 f0 fd ff ff       	jmp    1020 <_init+0x20>

Disassembly of section .plt.got:

0000000000001230 <__cxa_finalize@plt>:
    1230:	ff 25 c2 1d 05 00    	jmp    *0x51dc2(%rip)        # 52ff8 <__cxa_finalize@GLIBC_2.2.5>
    1236:	66 90                	xchg   %ax,%ax

Disassembly of section .text:

0000000000010000 <_start>:
   10000:	f3 0f 1e fa          	endbr64
   10004:	31 ed                	xor    %ebp,%ebp
   10006:	49 89 d1             	mov    %rdx,%r9
   10009:	5e                   	pop    %rsi
   1000a:	48 89 e2             	mov    %rsp,%rdx
   1000d:	48 83 e4 f0          	and    $0xfffffffffffffff0,%rsp
   10011:	50                   	push   %rax
   10012:	54                   	push   %rsp
   10013:	45 31 c0             	xor    %r8d,%r8d
   10016:	31 c9                	xor    %ecx,%ecx
   10018:	48 8d 3d b1 1f 01 00 	lea    0x11fb1(%rip),%rdi        # 21fd0 <__wrap_main>
   1001f:	ff 15 b3 2f 04 00    	call   *0x42fb3(%rip)        # 52fd8 <__libc_start_main@GLIBC_2.34>
   10025:	f4                   	hlt
   10026:	66 2e 0f 1f 84 00 00 00 00 00 	cs nopw 0x0(%rax,%rax,1)

0000000000010030 <deregister_tm_clones>:
   10030:	48 8d 3d f1 2f 04 00 	lea    0x42ff1(%rip),%rdi        # 53028 <__TMC_END__>
   10037:	48 8d 05 ea 2f 04 00 	lea    0x42fea(%rip),%rax        # 53028 <__TMC_END__>
   1003e:	48 39 f8             	cmp    %rdi,%rax
   10041:	74 15                	je     10058 <deregister_tm_clones+0x28>
   10043:	48 8b 05 96 2f 04 00 	mov    0x42f96(%rip),%rax        # 52fe0 <_ITM_deregisterTMCloneTable@Base>
   1004a:	48 85 c0             	test   %rax,%rax
   1004d:	74 09                	je     10058 <deregister_tm_clones+0x28>
   1004f:	ff e0                	jmp    *%rax
   10051:	0f 1f 80 00 00 00 00 	nopl   0x0(%rax)
   10058:	c3                   	ret
   10059:	0f 1f 80 00 00 00 00 	nopl   0x0(%rax)

0000000000010060 <register_tm_clones>:
   10060:	48 8d 3d c1 2f 04 00 	lea    0x42fc1(%rip),%rdi        # 53028 <__TMC_END__>
   10067:	48 8d 35 ba 2f 04 00 	lea    0x42fba(%rip),%rsi        # 53028 <__TMC_END__>
   1006e:	48 29 fe             	sub    %rdi,%rsi
   10071:	48 89 f0             	mov    %rsi,%rax
   10074:	48 c1 ee 3f          	shr    $0x3f,%rsi
   10078:	48 c1 f8 03          	sar    $0x3,%rax
   1007c:	48 01 c6             	add    %rax,%rsi
   1007f:	48 d1 fe             	sar    $1,%rsi
   10082:	74 14                	je     10098 <register_tm_clones+0x38>
   10084:	48 8b 05 65 2f 04 00 	mov    0x42f65(%rip),%rax        # 52ff0 <_ITM_registerTMCloneTable@Base>
   1008b:	48 85 c0             	test   %rax,%rax
   1008e:	74 08                	je     10098 <register_tm_clones+0x38>
   10090:	ff e0                	jmp    *%rax
   10092:	66 0f 1f 44 00 00    	nopw   0x0(%rax,%rax,1)
   10098:	c3                   	ret
   10099:	0f 1f 80 00 00 00 00 	nopl   0x0(%rax)

00000000000100a0 <__do_global_dtors_aux>:
   100a0:	f3 0f 1e fa          	endbr64
   100a4:	80 3d bd 2f 04 00 00 	cmpb   $0x0,0x42fbd(%rip)        # 53068 <completed.0>
   100ab:	75 2b                	jne    100d8 <__do_global_dtors_aux+0x38>
   100ad:	55                   	push   %rbp
   100ae:	48 83 3d 42 2f 04 00 00 	cmpq   $0x0,0x42f42(%rip)        # 52ff8 <__cxa_finalize@GLIBC_2.2.5>
   100b6:	48 89 e5             	mov    %rsp,%rbp
   100b9:	74 0c                	je     100c7 <__do_global_dtors_aux+0x27>
   100bb:	48 8b 3d 46 2f 04 00 	mov    0x42f46(%rip),%rdi        # 53008 <__dso_handle>
   100c2:	e8 69 11 ff ff       	call   1230 <__cxa_finalize@plt>
   100c7:	e8 64 ff ff ff       	call   10030 <deregister_tm_clones>
   100cc:	c6 05 95 2f 04 00 01 	movb   $0x1,0x42f95(%rip)        # 53068 <completed.0>
   100d3:	5d                   	pop    %rbp
   100d4:	c3                   	ret
   100d5:	0f 1f 00             	nopl   (%rax)
   100d8:	c3                   	ret
   100d9:	0f 1f 80 00 00 00 00 	nopl   0x0(%rax)

00000000000100e0 <frame_dummy>:
   100e0:	f3 0f 1e fa          	endbr64
   100e4:	e9 77 ff ff ff       	jmp    10060 <register_tm_clones>

00000000000100e9 <function>:
   100e9:	f3 0f 1e fa          	endbr64
   100ed:	55                   	push   %rbp
   100ee:	48 89 e5             	mov    %rsp,%rbp
   100f1:	48 83 ec 30          	sub    $0x30,%rsp
   100f5:	48 89 7d d8          	mov    %rdi,-0x28(%rbp)
   100f9:	48 8b 45 d8          	mov    -0x28(%rbp),%rax
   100fd:	48 89 45 f0          	mov    %rax,-0x10(%rbp)
   10101:	48 8b 45 f0          	mov    -0x10(%rbp),%rax
   10105:	48 89 c6             	mov    %rax,%rsi
   10108:	48 8d 05 f5 0e 04 00 	lea    0x40ef5(%rip),%rax        # 51004 <_IO_stdin_used+0x4>
   1010f:	48 89 c7             	mov    %rax,%rdi
   10112:	b8 00 00 00 00       	mov    $0x0,%eax
   10117:	e8 a4 0f ff ff       	call   10c0 <printf@plt>
   1011c:	41 b9 00 00 00 00    	mov    $0x0,%r9d
   10122:	41 b8 00 00 00 00    	mov    $0x0,%r8d
   10128:	b9 22 00 00 00       	mov    $0x22,%ecx
   1012d:	ba 03 00 00 00       	mov    $0x3,%edx
   10132:	be 00 10 00 00       	mov    $0x1000,%esi
   10137:	bf 00 00 00 00       	mov    $0x0,%edi
   1013c:	e8 4f 02 04 00       	call   50390 <__wrap_mmap>
   10141:	48 89 45 f8          	mov    %rax,-0x8(%rbp)
   10145:	48 83 7d f8 00       	cmpq   $0x0,-0x8(%rbp)
   1014a:	75 45                	jne    10191 <function+0xa8>
   1014c:	eb 0f                	jmp    1015d <function+0x74>
   1014e:	fa                   	cli
   1014f:	90                   	nop
   10150:	90                   	nop
   10151:	90                   	nop
   10152:	90                   	nop
   10153:	fa                   	cli
   10154:	90                   	nop
   10155:	90                   	nop
   10156:	90                   	nop
   10157:	90                   	nop
   10158:	fa                   	cli
   10159:	90                   	nop
   1015a:	90                   	nop
   1015b:	90                   	nop
   1015c:	90                   	nop
   1015d:	48 8b 45 f0          	mov    -0x10(%rbp),%rax
   10161:	48 89 c6             	mov    %rax,%rsi
   10164:	48 8d 05 ac 0e 04 00 	lea    0x40eac(%rip),%rax        # 51017 <_IO_stdin_used+0x17>
   1016b:	48 89 c7             	mov    %rax,%rdi
   1016e:	b8 00 00 00 00       	mov    $0x0,%eax
   10173:	e8 48 0f ff ff       	call   10c0 <printf@plt>
   10178:	48 8b 05 c1 2e 04 00 	mov    0x42ec1(%rip),%rax        # 53040 <stdout@GLIBC_2.2.5>
   1017f:	48 89 c7             	mov    %rax,%rdi
   10182:	e8 b9 0f ff ff       	call   1140 <fflush@plt>
   10187:	b8 00 00 00 00       	mov    $0x0,%eax
   1018c:	e9 a4 00 00 00       	jmp    10235 <function+0x14c>
   10191:	c7 45 ec 00 00 00 00 	movl   $0x0,-0x14(%rbp)
   10198:	eb 2e                	jmp    101c8 <function+0xdf>
   1019a:	eb 0f                	jmp    101ab <function+0xc2>
   1019c:	fa                   	cli
   1019d:	90                   	nop
   1019e:	90                   	nop
   1019f:	90                   	nop
   101a0:	90                   	nop
   101a1:	fa                   	cli
   101a2:	90                   	nop
   101a3:	90                   	nop
   101a4:	90                   	nop
   101a5:	90                   	nop
   101a6:	fa                   	cli
   101a7:	90                   	nop
   101a8:	90                   	nop
   101a9:	90                   	nop
   101aa:	90                   	nop
   101ab:	8b 45 ec             	mov    -0x14(%rbp),%eax
   101ae:	48 98                	cltq
   101b0:	48 8d 14 85 00 00 00 00 	lea    0x0(,%rax,4),%rdx
   101b8:	48 8b 45 f8          	mov    -0x8(%rbp),%rax
   101bc:	48 01 c2             	add    %rax,%rdx
   101bf:	8b 45 ec             	mov    -0x14(%rbp),%eax
   101c2:	89 02                	mov    %eax,(%rdx)
   101c4:	83 45 ec 01          	addl   $0x1,-0x14(%rbp)
   101c8:	83 7d ec 13          	cmpl   $0x13,-0x14(%rbp)
   101cc:	7e cc                	jle    1019a <function+0xb1>
   101ce:	c7 45 ec 00 00 00 00 	movl   $0x0,-0x14(%rbp)
   101d5:	eb 58                	jmp    1022f <function+0x146>
   101d7:	eb 0f                	jmp    101e8 <function+0xff>
   101d9:	fa                   	cli
   101da:	90                   	nop
   101db:	90                   	nop
   101dc:	90                   	nop
   101dd:	90                   	nop
   101de:	fa                   	cli
   101df:	90                   	nop
   101e0:	90                   	nop
   101e1:	90                   	nop
   101e2:	90                   	nop
   101e3:	fa                   	cli
   101e4:	90                   	nop
   101e5:	90                   	nop
   101e6:	90                   	nop
   101e7:	90                   	nop
   101e8:	8b 45 ec             	mov    -0x14(%rbp),%eax
   101eb:	48 98                	cltq
   101ed:	48 8d 14 85 00 00 00 00 	lea    0x0(,%rax,4),%rdx
   101f5:	48 8b 45 f8          	mov    -0x8(%rbp),%rax
   101f9:	48 01 d0             	add    %rdx,%rax
   101fc:	8b 08                	mov    (%rax),%ecx
   101fe:	8b 55 ec             	mov    -0x14(%rbp),%edx
   10201:	48 8b 45 f0          	mov    -0x10(%rbp),%rax
   10205:	48 89 c6             	mov    %rax,%rsi
   10208:	48 8d 05 26 0e 04 00 	lea    0x40e26(%rip),%rax        # 51035 <_IO_stdin_used+0x35>
   1020f:	48 89 c7             	mov    %rax,%rdi
   10212:	b8 00 00 00 00       	mov    $0x0,%eax
   10217:	e8 a4 0e ff ff       	call   10c0 <printf@plt>
   1021c:	48 8b 05 1d 2e 04 00 	mov    0x42e1d(%rip),%rax        # 53040 <stdout@GLIBC_2.2.5>
   10223:	48 89 c7             	mov    %rax,%rdi
   10226:	e8 15 0f ff ff       	call   1140 <fflush@plt>
   1022b:	83 45 ec 01          	addl   $0x1,-0x14(%rbp)
   1022f:	83 7d ec 13          	cmpl   $0x13,-0x14(%rbp)
   10233:	7e a2                	jle    101d7 <function+0xee>
   10235:	c9                   	leave
   10236:	c3                   	ret

0000000000010237 <main>:
   10237:	f3 0f 1e fa          	endbr64
   1023b:	55                   	push   %rbp
   1023c:	48 89 e5             	mov    %rsp,%rbp
   1023f:	48 83 ec 30          	sub    $0x30,%rsp
   10243:	89 7d dc             	mov    %edi,-0x24(%rbp)
   10246:	48 89 75 d0          	mov    %rsi,-0x30(%rbp)
   1024a:	64 48 8b 04 25 28 00 00 00 	mov    %fs:0x28,%rax
   10253:	48 89 45 f8          	mov    %rax,-0x8(%rbp)
   10257:	31 c0                	xor    %eax,%eax
   10259:	48 c7 45 e8 00 00 00 00 	movq   $0x0,-0x18(%rbp)
   10261:	90                   	nop
   10262:	48 8b 45 e8          	mov    -0x18(%rbp),%rax
   10266:	48 8d 55 f0          	lea    -0x10(%rbp),%rdx
   1026a:	48 8b 4d e8          	mov    -0x18(%rbp),%rcx
   1026e:	48 c1 e1 03          	shl    $0x3,%rcx
   10272:	48 8d 3c 0a          	lea    (%rdx,%rcx,1),%rdi
   10276:	48 89 c1             	mov    %rax,%rcx
   10279:	48 8d 05 69 fe ff ff 	lea    -0x197(%rip),%rax        # 100e9 <function>
   10280:	48 89 c2             	mov    %rax,%rdx
   10283:	be 00 00 00 00       	mov    $0x0,%esi
   10288:	e8 03 0f ff ff       	call   1190 <pthread_create@plt>
   1028d:	48 83 45 e8 01       	addq   $0x1,-0x18(%rbp)
   10292:	48 83 7d e8 00       	cmpq   $0x0,-0x18(%rbp)
   10297:	7f 13                	jg     102ac <main+0x75>
   10299:	eb 0f                	jmp    102aa <main+0x73>
   1029b:	fa                   	cli
   1029c:	90                   	nop
   1029d:	90                   	nop
   1029e:	90                   	nop
   1029f:	90                   	nop
   102a0:	fa                   	cli
   102a1:	90                   	nop
   102a2:	90                   	nop
   102a3:	90                   	nop
   102a4:	90                   	nop
   102a5:	fa                   	cli
   102a6:	90                   	nop
   102a7:	90                   	nop
   102a8:	90                   	nop
   102a9:	90                   	nop
   102aa:	eb b6                	jmp    10262 <main+0x2b>
   102ac:	48 c7 45 e8 00 00 00 00 	movq   $0x0,-0x18(%rbp)
   102b4:	eb 2c                	jmp    102e2 <main+0xab>
   102b6:	eb 0f                	jmp    102c7 <main+0x90>
   102b8:	fa                   	cli
   102b9:	90                   	nop
   102ba:	90                   	nop
   102bb:	90                   	nop
   102bc:	90                   	nop
   102bd:	fa                   	cli
   102be:	90                   	nop
   102bf:	90                   	nop
   102c0:	90                   	nop
   102c1:	90                   	nop
   102c2:	fa                   	cli
   102c3:	90                   	nop
   102c4:	90                   	nop
   102c5:	90                   	nop
   102c6:	90                   	nop
   102c7:	48 8b 45 e8          	mov    -0x18(%rbp),%rax
   102cb:	48 8b 44 c5 f0       	mov    -0x10(%rbp,%rax,8),%rax
   102d0:	be 00 00 00 00       	mov    $0x0,%esi
   102d5:	48 89 c7             	mov    %rax,%rdi
   102d8:	e8 33 0f ff ff       	call   1210 <pthread_join@plt>
   102dd:	48 83 45 e8 01       	addq   $0x1,-0x18(%rbp)
   102e2:	48 83 7d e8 00       	cmpq   $0x0,-0x18(%rbp)
   102e7:	7e cd                	jle    102b6 <main+0x7f>
   102e9:	b8 00 00 00 00       	mov    $0x0,%eax
   102ee:	48 8b 55 f8          	mov    -0x8(%rbp),%rdx
   102f2:	64 48 2b 14 25 28 00 00 00 	sub    %fs:0x28,%rdx
   102fb:	74 05                	je     10302 <main+0xcb>
   102fd:	e8 8e 0d ff ff       	call   1090 <__stack_chk_fail@plt>
   10302:	c9                   	leave
   10303:	c3                   	ret
   10304:	66 2e 0f 1f 84 00 00 00 00 00 	cs nopw 0x0(%rax,%rax,1)
   1030e:	66 2e 0f 1f 84 00 00 00 00 00 	cs nopw 0x0(%rax,%rax,1)
   10318:	66 2e 0f 1f 84 00 00 00 00 00 	cs nopw 0x0(%rax,%rax,1)
   10322:	66 2e 0f 1f 84 00 00 00 00 00 	cs nopw 0x0(%rax,%rax,1)
   1032c:	66 2e 0f 1f 84 00 00 00 00 00 	cs nopw 0x0(%rax,%rax,1)
   10336:	66 2e 0f 1f 84 00 00 00 00 00 	cs nopw 0x0(%rax,%rax,1)
   10340:	66 2e 0f 1f 84 00 00 00 00 00 	cs nopw 0x0(%rax,%rax,1)
   1034a:	66 2e 0f 1f 84 00 00 00 00 00 	cs nopw 0x0(%rax,%rax,1)
   10354:	66 2e 0f 1f 84 00 00 00 00 00 	cs nopw 0x0(%rax,%rax,1)
   1035e:	66 2e 0f 1f 84 00 00 00 00 00 	cs nopw 0x0(%rax,%rax,1)
   10368:	66 2e 0f 1f 84 00 00 00 00 00 	cs nopw 0x0(%rax,%rax,1)
   10372:	66 2e 0f 1f 84 00 00 00 00 00 	cs nopw 0x0(%rax,%rax,1)
   1037c:	66 2e 0f 1f 84 00 00 00 00 00 	cs nopw 0x0(%rax,%rax,1)
   10386:	66 2e 0f 1f 84 00 00 00 00 00 	cs nopw 0x0(%rax,%rax,1)
   10390:	66 2e 0f 1f 84 00 00 00 00 00 	cs nopw 0x0(%rax,%rax,1)
   1039a:	66 2e 0f 1f 84 00 00 00 00 00 	cs nopw 0x0(%rax,%rax,1)
   103a4:	66 2e 0f 1f 84 00 00 00 00 00 	cs nopw 0x0(%rax,%rax,1)
   103ae:	66 2e 0f 1f 84 00 00 00 00 00 	cs nopw 0x0(%rax,%rax,1)
   103b8:	66 2e 0f 1f 84 00 00 00 00 00 	cs nopw 0x0(%rax,%rax,1)
   103c2:	66 2e 0f 1f 84 00 00 00 00 00 	cs nopw 0x0(%rax,%rax,1)
   103cc:	66 2e 0f 1f 84 00 00 00 00 00 	cs nopw 0x0(%rax,%rax,1)
   103d6:	66 2e 0f 1f 84 00 00 00 00 00 	cs nopw 0x0(%rax,%rax,1)
   103e0:	66 2e 0f 1f 84 00 00 00 00 00 	cs nopw 0x0(%rax,%rax,1)
   103ea:	66 2e 0f 1f 84 00 00 00 00 00 	cs nopw 0x0(%rax,%rax,1)
   103f4:	66 2e 0f 1f 84 00 00 00 00 00 	cs nopw 0x0(%rax,%rax,1)
   103fe:	66 2e 0f 1f 84 00 00 00 00 00 	cs nopw 0x0(%rax,%rax,1)
   10408:	66 2e 0f 1f 84 00 00 00 00 00 	cs nopw 0x0(%rax,%rax,1)
   10412:	66 2e 0f 1f 84 00 00 00 00 00 	cs nopw 0x0(%rax,%rax,1)
   1041c:	66 2e 0f 1f 84 00 00 00 00 00 	cs nopw 0x0(%rax,%rax,1)
   10426:	66 2e 0f 1f 84 00 00 00 00 00 	cs nopw 0x0(%rax,%rax,1)
   10430:	66 2e 0f 1f 84 00 00 00 00 00 	cs nopw 0x0(%rax,%rax,1)
   1043a:	66 2e 0f 1f 84 00 00 00 00 00 	cs nopw 0x0(%rax,%rax,1)
   10444:	66 2e 0f 1f 84 00 00 00 00 00 	cs nopw 0x0(%rax,%rax,1)
   1044e:	66 2e 0f 1f 84 00 00 00 00 00 	cs nopw 0x0(%rax,%rax,1)
   10458:	66 2e 0f 1f 84 00 00 00 00 00 	cs nopw 0x0(%rax,%rax,1)
   10462:	66 2e 0f 1f 84 00 00 00 00 00 	cs nopw 0x0(%rax,%rax,1)
   1046c:	66 2e 0f 1f 84 00 00 00 00 00 	cs nopw 0x0(%rax,%rax,1)
   10476:	66 2e 0f 1f 84 00 00 00 00 00 	cs nopw 0x0(%rax,%rax,1)
   10480:	66 2e 0f 1f 84 00 00 00 00 00 	cs nopw 0x0(%rax,%rax,1)
   1048a:	66 2e 0f 1f 84 00 00 00 00 00 	cs nopw 0x0(%rax,%rax,1)
   10494:	66 2e 0f 1f 84 00 00 00 00 00 	cs nopw 0x0(%rax,%rax,1)
   1049e:	66 2e 0f 1f 84 00 00 00 00 00 	cs nopw 0x0(%rax,%rax,1)
   104a8:	66 2e 0f 1f 84 00 00 00 00 00 	cs nopw 0x0(%rax,%rax,1)
   104b2:	66 2e 0f 1f 84 00 00 00 00 00 	cs nopw 0x0(%rax,%rax,1)
   104bc:	66 2e 0f 1f 84 00 00 00 00 00 	cs nopw 0x0(%rax,%rax,1)
   104c6:	66 2e 0f 1f 84 00 00 00 00 00 	cs nopw 0x0(%rax,%rax,1)
   104d0:	66 2e 0f 1f 84 00 00 00 00 00 	cs nopw 0x0(%rax,%rax,1)
   104da:	66 2e 0f 1f 84 00 00 00 00 00 	cs nopw 0x0(%rax,%rax,1)
   104e4:	66 2e 0f 1f 84 00 00 00 00 00 	cs nopw 0x0(%rax,%rax,1)
   104ee:	66 2e 0f 1f 84 00 00 00 00 00 	cs nopw 0x0(%rax,%rax,1)
   104f8:	66 2e 0f 1f 84 00 00 00 00 00 	cs nopw 0x0(%rax,%rax,1)
   10502:	66 2e 0f 1f 84 00 00 00 00 00 	cs nopw 0x0(%rax,%rax,1)
   1050c:	66 2e 0f 1f 84 00 00 00 00 00 	cs nopw 0x0(%rax,%rax,1)
   10516:	66 2e 0f 1f 84 00 00 00 00 00 	cs nopw 0x0(%rax,%rax,1)
   10520:	66 2e 0f 1f 84 00 00 00 00 00 	cs nopw 0x0(%rax,%rax,1)
   1052a:	66 2e 0f 1f 84 00 00 00 00 00 	cs nopw 0x0(%rax,%rax,1)
   10534:	66 2e 0f 1f 84 00 00 00 00 00 	cs nopw 0x0(%rax,%rax,1)
   1053e:	66 2e 0f 1f 84 00 00 00 00 00 	cs nopw 0x0(%rax,%rax,1)
   10548:	66 2e 0f 1f 84 00 00 00 00 00 	cs nopw 0x0(%rax,%rax,1)
   10552:	66 2e 0f 1f 84 00 00 00 00 00 	cs nopw 0x0(%rax,%rax,1)
   1055c:	66 2e 0f 1f 84 00 00 00 00 00 	cs nopw 0x0(%rax,%rax,1)
   10566:	66 2e 0f 1f 84 00 00 00 00 00 	cs nopw 0x0(%rax,%rax,1)
   10570:	66 2e 0f 1f 84 00 00 00 00 00 	cs nopw 0x0(%rax,%rax,1)
   1057a:	66 2e 0f 1f 84 00 00 00 00 00 	cs nopw 0x0(%rax,%rax,1)
   10584:	66 2e 0f 1f 84 00 00 00 00 00 	cs nopw 0x0(%rax,%rax,1)
   1058e:	66 2e 0f 1f 84 00 00 00 00 00 	cs nopw 0x0(%rax,%rax,1)
   10598:	66 2e 0f 1f 84 00 00 00 00 00 	cs nopw 0x0(%rax,%rax,1)
   105a2:	66 2e 0f 1f 84 00 00 00 00 00 	cs nopw 0x0(%rax,%rax,1)
   105ac:	66 2e 0f 1f 84 00 00 00 00 00 	cs nopw 0x0(%rax,%rax,1)
   105b6:	66 2e 0f 1f 84 00 00 00 00 00 	cs nopw 0x0(%rax,%rax,1)
   105c0:	66 2e 0f 1f 84 00 00 00 00 00 	cs nopw 0x0(%rax,%rax,1)
   105ca:	66 2e 0f 1f 84 00 00 00 00 00 	cs nopw 0x0(%rax,%rax,1)
   105d4:	66 2e 0f 1f 84 00 00 00 00 00 	cs nopw 0x0(%rax,%rax,1)
   105de:	66 2e 0f 1f 84 00 00 00 00 00 	cs nopw 0x0(%rax,%rax,1)
   105e8:	66 2e 0f 1f 84 00 00 00 00 00 	cs nopw 0x0(%rax,%rax,1)
   105f2:	66 2e 0f 1f 84 00 00 00 00 00 	cs nopw 0x0(%rax,%rax,1)
   105fc:	66 2e 0f 1f 84 00 00 00 00 00 	cs nopw 0x0(%rax,%rax,1)
   10606:	66 2e 0f 1f 84 00 00 00 00 00 	cs nopw 0x0(%rax,%rax,1)
   10610:	66 2e 0f 1f 84 00 00 00 00 00 	cs nopw 0x0(%rax,%rax,1)
   1061a:	66 2e 0f 1f 84 00 00 00 00 00 	cs nopw 0x0(%rax,%rax,1)
   10624:	66 2e 0f 1f 84 00 00 00 00 00 	cs nopw 0x0(%rax,%rax,1)
   1062e:	66 2e 0f 1f 84 00 00 00 00 00 	cs nopw 0x0(%rax,%rax,1)
   10638:	66 2e 0f 1f 84 00 00 00 00 00 	cs nopw 0x0(%rax,%rax,1)
   10642:	66 2e 0f 1f 84 00 00 00 00 00 	cs nopw 0x0(%rax,%rax,1)
   1064c:	66 2e 0f 1f 84 00 00 00 00 00 	cs nopw 0x0(%rax,%rax,1)
   10656:	66 2e 0f 1f 84 00 00 00 00 00 	cs nopw 0x0(%rax,%rax,1)
   10660:	66 2e 0f 1f 84 00 00 00 00 00 	cs nopw 0x0(%rax,%rax,1)
   1066a:	66 2e 0f 1f 84 00 00 00 00 00 	cs nopw 0x0(%rax,%rax,1)
   10674:	66 2e 0f 1f 84 00 00 00 00 00 	cs nopw 0x0(%rax,%rax,1)
   1067e:	66 2e 0f 1f 84 00 00 00 00 00 	cs nopw 0x0(%rax,%rax,1)
   10688:	66 2e 0f 1f 84 00 00 00 00 00 	cs nopw 0x0(%rax,%rax,1)
   10692:	66 2e 0f 1f 84 00 00 00 00 00 	cs nopw 0x0(%rax,%rax,1)
   1069c:	66 2e 0f 1f 84 00 00 00 00 00 	cs nopw 0x0(%rax,%rax,1)
   106a6:	66 2e 0f 1f 84 00 00 00 00 00 	cs nopw 0x0(%rax,%rax,1)
   106b0:	66 2e 0f 1f 84 00 00 00 00 00 	cs nopw 0x0(%rax,%rax,1)
   106ba:	66 2e 0f 1f 84 00 00 00 00 00 	cs nopw 0x0(%rax,%rax,1)
   106c4:	66 2e 0f 1f 84 00 00 00 00 00 	cs nopw 0x0(%rax,%rax,1)
   106ce:	66 2e 0f 1f 84 00 00 00 00 00 	cs nopw 0x0(%rax,%rax,1)
   106d8:	66 2e 0f 1f 84 00 00 00 00 00 	cs nopw 0x0(%rax,%rax,1)
   106e2:	66 2e 0f 1f 84 00 00 00 00 00 	cs nopw 0x0(%rax,%rax,1)
   106ec:	66 2e 0f 1f 84 00 00 00 00 00 	cs nopw 0x0(%rax,%rax,1)
   106f6:	66 2e 0f 1f 84 00 00 00 00 00 	cs nopw 0x0(%rax,%rax,1)
   10700:	66 2e 0f 1f 84 00 00 00 00 00 	cs nopw 0x0(%rax,%rax,1)
   1070a:	66 2e 0f 1f 84 00 00 00 00 00 	cs nopw 0x0(%rax,%rax,1)
   10714:	66 2e 0f 1f 84 00 00 00 00 00 	cs nopw 0x0(%rax,%rax,1)
   1071e:	66 2e 0f 1f 84 00 00 00 00 00 	cs nopw 0x0(%rax,%rax,1)
   10728:	66 2e 0f 1f 84 00 00 00 00 00 	cs nopw 0x0(%rax,%rax,1)
   10732:	66 2e 0f 1f 84 00 00 00 00 00 	cs nopw 0x0(%rax,%rax,1)
   1073c:	66 2e 0f 1f 84 00 00 00 00 00 	cs nopw 0x0(%rax,%rax,1)
   10746:	66 2e 0f 1f 84 00 00 00 00 00 	cs nopw 0x0(%rax,%rax,1)
   10750:	66 2e 0f 1f 84 00 00 00 00 00 	cs nopw 0x0(%rax,%rax,1)
   1075a:	66 2e 0f 1f 84 00 00 00 00 00 	cs nopw 0x0(%rax,%rax,1)
   10764:	66 2e 0f 1f 84 00 00 00 00 00 	cs nopw 0x0(%rax,%rax,1)
   1076e:	66 2e 0f 1f 84 00 00 00 00 00 	cs nopw 0x0(%rax,%rax,1)
   10778:	66 2e 0f 1f 84 00 00 00 00 00 	cs nopw 0x0(%rax,%rax,1)
   10782:	66 2e 0f 1f 84 00 00 00 00 00 	cs nopw 0x0(%rax,%rax,1)
   1078c:	66 2e 0f 1f 84 00 00 00 00 00 	cs nopw 0x0(%rax,%rax,1)
   10796:	66 2e 0f 1f 84 00 00 00 00 00 	cs nopw 0x0(%rax,%rax,1)
   107a0:	66 2e 0f 1f 84 00 00 00 00 00 	cs nopw 0x0(%rax,%rax,1)
   107aa:	66 2e 0f 1f 84 00 00 00 00 00 	cs nopw 0x0(%rax,%rax,1)
   107b4:	66 2e 0f 1f 84 00 00 00 00 00 	cs nopw 0x0(%rax,%rax,1)
   107be:	66 2e 0f 1f 84 00 00 00 00 00 	cs nopw 0x0(%rax,%rax,1)
   107c8:	66 2e 0f 1f 84 00 00 00 00 00 	cs nopw 0x0(%rax,%rax,1)
   107d2:	66 2e 0f 1f 84 00 00 00 00 00 	cs nopw 0x0(%rax,%rax,1)
   107dc:	66 2e 0f 1f 84 00 00 00 00 00 	cs nopw 0x0(%rax,%rax,1)
   107e6:	66 2e 0f 1f 84 00 00 00 00 00 	cs nopw 0x0(%rax,%rax,1)
   107f0:	66 2e 0f 1f 84 00 00 00 00 00 	cs nopw 0x0(%rax,%rax,1)
   107fa:	66 2e 0f 1f 84 00 00 00 00 00 	cs nopw 0x0(%rax,%rax,1)
   10804:	66 2e 0f 1f 84 00 00 00 00 00 	cs nopw 0x0(%rax,%rax,1)
   1080e:	66 2e 0f 1f 84 00 00 00 00 00 	cs nopw 0x0(%rax,%rax,1)
   10818:	66 2e 0f 1f 84 00 00 00 00 00 	cs nopw 0x0(%rax,%rax,1)
   10822:	66 2e 0f 1f 84 00 00 00 00 00 	cs nopw 0x0(%rax,%rax,1)
   1082c:	66 2e 0f 1f 84 00 00 00 00 00 	cs nopw 0x0(%rax,%rax,1)
   10836:	66 2e 0f 1f 84 00 00 00 00 00 	cs nopw 0x0(%rax,%rax,1)
   10840:	66 2e 0f 1f 84 00 00 00 00 00 	cs nopw 0x0(%rax,%rax,1)
   1084a:	66 2e 0f 1f 84 00 00 00 00 00 	cs nopw 0x0(%rax,%rax,1)
   10854:	66 2e 0f 1f 84 00 00 00 00 00 	cs nopw 0x0(%rax,%rax,1)
   1085e:	66 2e 0f 1f 84 00 00 00 00 00 	cs nopw 0x0(%rax,%rax,1)
   10868:	66 2e 0f 1f 84 00 00 00 00 00 	cs nopw 0x0(%rax,%rax,1)
   10872:	66 2e 0f 1f 84 00 00 00 00 00 	cs nopw 0x0(%rax,%rax,1)
   1087c:	66 2e 0f 1f 84 00 00 00 00 00 	cs nopw 0x0(%rax,%rax,1)
   10886:	66 2e 0f 1f 84 00 00 00 00 00 	cs nopw 0x0(%rax,%rax,1)
   10890:	66 2e 0f 1f 84 00 00 00 00 00 	cs nopw 0x0(%rax,%rax,1)
   1089a:	66 2e 0f 1f 84 00 00 00 00 00 	cs nopw 0x0(%rax,%rax,1)
   108a4:	66 2e 0f 1f 84 00 00 00 00 00 	cs nopw 0x0(%rax,%rax,1)
   108ae:	66 2e 0f 1f 84 00 00 00 00 00 	cs nopw 0x0(%rax,%rax,1)
   108b8:	66 2e 0f 1f 84 00 00 00 00 00 	cs nopw 0x0(%rax,%rax,1)
   108c2:	66 2e 0f 1f 84 00 00 00 00 00 	cs nopw 0x0(%rax,%rax,1)
   108cc:	66 2e 0f 1f 84 00 00 00 00 00 	cs nopw 0x0(%rax,%rax,1)
   108d6:	66 2e 0f 1f 84 00 00 00 00 00 	cs nopw 0x0(%rax,%rax,1)
   108e0:	66 2e 0f 1f 84 00 00 00 00 00 	cs nopw 0x0(%rax,%rax,1)
   108ea:	66 2e 0f 1f 84 00 00 00 00 00 	cs nopw 0x0(%rax,%rax,1)
   108f4:	66 2e 0f 1f 84 00 00 00 00 00 	cs nopw 0x0(%rax,%rax,1)
   108fe:	66 2e 0f 1f 84 00 00 00 00 00 	cs nopw 0x0(%rax,%rax,1)
   10908:	66 2e 0f 1f 84 00 00 00 00 00 	cs nopw 0x0(%rax,%rax,1)
   10912:	66 2e 0f 1f 84 00 00 00 00 00 	cs nopw 0x0(%rax,%rax,1)
   1091c:	66 2e 0f 1f 84 00 00 00 00 00 	cs nopw 0x0(%rax,%rax,1)
   10926:	66 2e 0f 1f 84 00 00 00 00 00 	cs nopw 0x0(%rax,%rax,1)
   10930:	66 2e 0f 1f 84 00 00 00 00 00 	cs nopw 0x0(%rax,%rax,1)
   1093a:	66 2e 0f 1f 84 00 00 00 00 00 	cs nopw 0x0(%rax,%rax,1)
   10944:	66 2e 0f 1f 84 00 00 00 00 00 	cs nopw 0x0(%rax,%rax,1)
   1094e:	66 2e 0f 1f 84 00 00 00 00 00 	cs nopw 0x0(%rax,%rax,1)
   10958:	66 2e 0f 1f 84 00 00 00 00 00 	cs nopw 0x0(%rax,%rax,1)
   10962:	66 2e 0f 1f 84 00 00 00 00 00 	cs nopw 0x0(%rax,%rax,1)
   1096c:	66 2e 0f 1f 84 00 00 00 00 00 	cs nopw 0x0(%rax,%rax,1)
   10976:	66 2e 0f 1f 84 00 00 00 00 00 	cs nopw 0x0(%rax,%rax,1)
   10980:	66 2e 0f 1f 84 00 00 00 00 00 	cs nopw 0x0(%rax,%rax,1)
   1098a:	66 2e 0f 1f 84 00 00 00 00 00 	cs nopw 0x0(%rax,%rax,1)
   10994:	66 2e 0f 1f 84 00 00 00 00 00 	cs nopw 0x0(%rax,%rax,1)
   1099e:	66 2e 0f 1f 84 00 00 00 00 00 	cs nopw 0x0(%rax,%rax,1)
   109a8:	66 2e 0f 1f 84 00 00 00 00 00 	cs nopw 0x0(%rax,%rax,1)
   109b2:	66 2e 0f 1f 84 00 00 00 00 00 	cs nopw 0x0(%rax,%rax,1)
   109bc:	66 2e 0f 1f 84 00 00 00 00 00 	cs nopw 0x0(%rax,%rax,1)
   109c6:	66 2e 0f 1f 84 00 00 00 00 00 	cs nopw 0x0(%rax,%rax,1)
   109d0:	66 2e 0f 1f 84 00 00 00 00 00 	cs nopw 0x0(%rax,%rax,1)
   109da:	66 2e 0f 1f 84 00 00 00 00 00 	cs nopw 0x0(%rax,%rax,1)
   109e4:	66 2e 0f 1f 84 00 00 00 00 00 	cs nopw 0x0(%rax,%rax,1)
   109ee:	66 2e 0f 1f 84 00 00 00 00 00 	cs nopw 0x0(%rax,%rax,1)
   109f8:	66 2e 0f 1f 84 00 00 00 00 00 	cs nopw 0x0(%rax,%rax,1)
   10a02:	66 2e 0f 1f 84 00 00 00 00 00 	cs nopw 0x0(%rax,%rax,1)
   10a0c:	66 2e 0f 1f 84 00 00 00 00 00 	cs nopw 0x0(%rax,%rax,1)
   10a16:	66 2e 0f 1f 84 00 00 00 00 00 	cs nopw 0x0(%rax,%rax,1)
   10a20:	66 2e 0f 1f 84 00 00 00 00 00 	cs nopw 0x0(%rax,%rax,1)
   10a2a:	66 2e 0f 1f 84 00 00 00 00 00 	cs nopw 0x0(%rax,%rax,1)
   10a34:	66 2e 0f 1f 84 00 00 00 00 00 	cs nopw 0x0(%rax,%rax,1)
   10a3e:	66 2e 0f 1f 84 00 00 00 00 00 	cs nopw 0x0(%rax,%rax,1)
   10a48:	66 2e 0f 1f 84 00 00 00 00 00 	cs nopw 0x0(%rax,%rax,1)
   10a52:	66 2e 0f 1f 84 00 00 00 00 00 	cs nopw 0x0(%rax,%rax,1)
   10a5c:	66 2e 0f 1f 84 00 00 00 00 00 	cs nopw 0x0(%rax,%rax,1)
   10a66:	66 2e 0f 1f 84 00 00 00 00 00 	cs nopw 0x0(%rax,%rax,1)
   10a70:	66 2e 0f 1f 84 00 00 00 00 00 	cs nopw 0x0(%rax,%rax,1)
   10a7a:	66 2e 0f 1f 84 00 00 00 00 00 	cs nopw 0x0(%rax,%rax,1)
   10a84:	66 2e 0f 1f 84 00 00 00 00 00 	cs nopw 0x0(%rax,%rax,1)
   10a8e:	66 2e 0f 1f 84 00 00 00 00 00 	cs nopw 0x0(%rax,%rax,1)
   10a98:	66 2e 0f 1f 84 00 00 00 00 00 	cs nopw 0x0(%rax,%rax,1)
   10aa2:	66 2e 0f 1f 84 00 00 00 00 00 	cs nopw 0x0(%rax,%rax,1)
   10aac:	66 2e 0f 1f 84 00 00 00 00 00 	cs nopw 0x0(%rax,%rax,1)
   10ab6:	66 2e 0f 1f 84 00 00 00 00 00 	cs nopw 0x0(%rax,%rax,1)
   10ac0:	66 2e 0f 1f 84 00 00 00 00 00 	cs nopw 0x0(%rax,%rax,1)
   10aca:	66 2e 0f 1f 84 00 00 00 00 00 	cs nopw 0x0(%rax,%rax,1)
   10ad4:	66 2e 0f 1f 84 00 00 00 00 00 	cs nopw 0x0(%rax,%rax,1)
   10ade:	66 2e 0f 1f 84 00 00 00 00 00 	cs nopw 0x0(%rax,%rax,1)
   10ae8:	66 2e 0f 1f 84 00 00 00 00 00 	cs nopw 0x0(%rax,%rax,1)
   10af2:	66 2e 0f 1f 84 00 00 00 00 00 	cs nopw 0x0(%rax,%rax,1)
   10afc:	66 2e 0f 1f 84 00 00 00 00 00 	cs nopw 0x0(%rax,%rax,1)
   10b06:	66 2e 0f 1f 84 00 00 00 00 00 	cs nopw 0x0(%rax,%rax,1)
   10b10:	66 2e 0f 1f 84 00 00 00 00 00 	cs nopw 0x0(%rax,%rax,1)
   10b1a:	66 2e 0f 1f 84 00 00 00 00 00 	cs nopw 0x0(%rax,%rax,1)
   10b24:	66 2e 0f 1f 84 00 00 00 00 00 	cs nopw 0x0(%rax,%rax,1)
   10b2e:	66 2e 0f 1f 84 00 00 00 00 00 	cs nopw 0x0(%rax,%rax,1)
   10b38:	66 2e 0f 1f 84 00 00 00 00 00 	cs nopw 0x0(%rax,%rax,1)
   10b42:	66 2e 0f 1f 84 00 00 00 00 00 	cs nopw 0x0(%rax,%rax,1)
   10b4c:	66 2e 0f 1f 84 00 00 00 00 00 	cs nopw 0x0(%rax,%rax,1)
   10b56:	66 2e 0f 1f 84 00 00 00 00 00 	cs nopw 0x0(%rax,%rax,1)
   10b60:	66 2e 0f 1f 84 00 00 00 00 00 	cs nopw 0x0(%rax,%rax,1)
   10b6a:	66 2e 0f 1f 84 00 00 00 00 00 	cs nopw 0x0(%rax,%rax,1)
   10b74:	66 2e 0f 1f 84 00 00 00 00 00 	cs nopw 0x0(%rax,%rax,1)
   10b7e:	66 2e 0f 1f 84 00 00 00 00 00 	cs nopw 0x0(%rax,%rax,1)
   10b88:	66 2e 0f 1f 84 00 00 00 00 00 	cs nopw 0x0(%rax,%rax,1)
   10b92:	66 2e 0f 1f 84 00 00 00 00 00 	cs nopw 0x0(%rax,%rax,1)
   10b9c:	66 2e 0f 1f 84 00 00 00 00 00 	cs nopw 0x0(%rax,%rax,1)
   10ba6:	66 2e 0f 1f 84 00 00 00 00 00 	cs nopw 0x0(%rax,%rax,1)
   10bb0:	66 2e 0f 1f 84 00 00 00 00 00 	cs nopw 0x0(%rax,%rax,1)
   10bba:	66 2e 0f 1f 84 00 00 00 00 00 	cs nopw 0x0(%rax,%rax,1)
   10bc4:	66 2e 0f 1f 84 00 00 00 00 00 	cs nopw 0x0(%rax,%rax,1)
   10bce:	66 2e 0f 1f 84 00 00 00 00 00 	cs nopw 0x0(%rax,%rax,1)
   10bd8:	66 2e 0f 1f 84 00 00 00 00 00 	cs nopw 0x0(%rax,%rax,1)
   10be2:	66 2e 0f 1f 84 00 00 00 00 00 	cs nopw 0x0(%rax,%rax,1)
   10bec:	66 2e 0f 1f 84 00 00 00 00 00 	cs nopw 0x0(%rax,%rax,1)
   10bf6:	66 2e 0f 1f 84 00 00 00 00 00 	cs nopw 0x0(%rax,%rax,1)
   10c00:	66 2e 0f 1f 84 00 00 00 00 00 	cs nopw 0x0(%rax,%rax,1)
   10c0a:	66 2e 0f 1f 84 00 00 00 00 00 	cs nopw 0x0(%rax,%rax,1)
   10c14:	66 2e 0f 1f 84 00 00 00 00 00 	cs nopw 0x0(%rax,%rax,1)
   10c1e:	66 2e 0f 1f 84 00 00 00 00 00 	cs nopw 0x0(%rax,%rax,1)
   10c28:	66 2e 0f 1f 84 00 00 00 00 00 	cs nopw 0x0(%rax,%rax,1)
   10c32:	66 2e 0f 1f 84 00 00 00 00 00 	cs nopw 0x0(%rax,%rax,1)
   10c3c:	66 2e 0f 1f 84 00 00 00 00 00 	cs nopw 0x0(%rax,%rax,1)
   10c46:	66 2e 0f 1f 84 00 00 00 00 00 	cs nopw 0x0(%rax,%rax,1)
   10c50:	66 2e 0f 1f 84 00 00 00 00 00 	cs nopw 0x0(%rax,%rax,1)
   10c5a:	66 2e 0f 1f 84 00 00 00 00 00 	cs nopw 0x0(%rax,%rax,1)
   10c64:	66 2e 0f 1f 84 00 00 00 00 00 	cs nopw 0x0(%rax,%rax,1)
   10c6e:	66 2e 0f 1f 84 00 00 00 00 00 	cs nopw 0x0(%rax,%rax,1)
   10c78:	66 2e 0f 1f 84 00 00 00 00 00 	cs nopw 0x0(%rax,%rax,1)
   10c82:	66 2e 0f 1f 84 00 00 00 00 00 	cs nopw 0x0(%rax,%rax,1)
   10c8c:	66 2e 0f 1f 84 00 00 00 00 00 	cs nopw 0x0(%rax,%rax,1)
   10c96:	66 2e 0f 1f 84 00 00 00 00 00 	cs nopw 0x0(%rax,%rax,1)
   10ca0:	66 2e 0f 1f 84 00 00 00 00 00 	cs nopw 0x0(%rax,%rax,1)
   10caa:	66 2e 0f 1f 84 00 00 00 00 00 	cs nopw 0x0(%rax,%rax,1)
   10cb4:	66 2e 0f 1f 84 00 00 00 00 00 	cs nopw 0x0(%rax,%rax,1)
   10cbe:	66 2e 0f 1f 84 00 00 00 00 00 	cs nopw 0x0(%rax,%rax,1)
   10cc8:	66 2e 0f 1f 84 00 00 00 00 00 	cs nopw 0x0(%rax,%rax,1)
   10cd2:	66 2e 0f 1f 84 00 00 00 00 00 	cs nopw 0x0(%rax,%rax,1)
   10cdc:	66 2e 0f 1f 84 00 00 00 00 00 	cs nopw 0x0(%rax,%rax,1)
   10ce6:	66 2e 0f 1f 84 00 00 00 00 00 	cs nopw 0x0(%rax,%rax,1)
   10cf0:	66 2e 0f 1f 84 00 00 00 00 00 	cs nopw 0x0(%rax,%rax,1)
   10cfa:	66 2e 0f 1f 84 00 00 00 00 00 	cs nopw 0x0(%rax,%rax,1)
   10d04:	66 2e 0f 1f 84 00 00 00 00 00 	cs nopw 0x0(%rax,%rax,1)
   10d0e:	66 2e 0f 1f 84 00 00 00 00 00 	cs nopw 0x0(%rax,%rax,1)
   10d18:	66 2e 0f 1f 84 00 00 00 00 00 	cs nopw 0x0(%rax,%rax,1)
   10d22:	66 2e 0f 1f 84 00 00 00 00 00 	cs nopw 0x0(%rax,%rax,1)
   10d2c:	66 2e 0f 1f 84 00 00 00 00 00 	cs nopw 0x0(%rax,%rax,1)
   10d36:	66 2e 0f 1f 84 00 00 00 00 00 	cs nopw 0x0(%rax,%rax,1)
   10d40:	66 2e 0f 1f 84 00 00 00 00 00 	cs nopw 0x0(%rax,%rax,1)
   10d4a:	66 2e 0f 1f 84 00 00 00 00 00 	cs nopw 0x0(%rax,%rax,1)
   10d54:	66 2e 0f 1f 84 00 00 00 00 00 	cs nopw 0x0(%rax,%rax,1)
   10d5e:	66 2e 0f 1f 84 00 00 00 00 00 	cs nopw 0x0(%rax,%rax,1)
   10d68:	66 2e 0f 1f 84 00 00 00 00 00 	cs nopw 0x0(%rax,%rax,1)
   10d72:	66 2e 0f 1f 84 00 00 00 00 00 	cs nopw 0x0(%rax,%rax,1)
   10d7c:	66 2e 0f 1f 84 00 00 00 00 00 	cs nopw 0x0(%rax,%rax,1)
   10d86:	66 2e 0f 1f 84 00 00 00 00 00 	cs nopw 0x0(%rax,%rax,1)
   10d90:	66 2e 0f 1f 84 00 00 00 00 00 	cs nopw 0x0(%rax,%rax,1)
   10d9a:	66 2e 0f 1f 84 00 00 00 00 00 	cs nopw 0x0(%rax,%rax,1)
   10da4:	66 2e 0f 1f 84 00 00 00 00 00 	cs nopw 0x0(%rax,%rax,1)
   10dae:	66 2e 0f 1f 84 00 00 00 00 00 	cs nopw 0x0(%rax,%rax,1)
   10db8:	66 2e 0f 1f 84 00 00 00 00 00 	cs nopw 0x0(%rax,%rax,1)
   10dc2:	66 2e 0f 1f 84 00 00 00 00 00 	cs nopw 0x0(%rax,%rax,1)
   10dcc:	66 2e 0f 1f 84 00 00 00 00 00 	cs nopw 0x0(%rax,%rax,1)
   10dd6:	66 2e 0f 1f 84 00 00 00 00 00 	cs nopw 0x0(%rax,%rax,1)
   10de0:	66 2e 0f 1f 84 00 00 00 00 00 	cs nopw 0x0(%rax,%rax,1)
   10dea:	66 2e 0f 1f 84 00 00 00 00 00 	cs nopw 0x0(%rax,%rax,1)
   10df4:	66 2e 0f 1f 84 00 00 00 00 00 	cs nopw 0x0(%rax,%rax,1)
   10dfe:	66 2e 0f 1f 84 00 00 00 00 00 	cs nopw 0x0(%rax,%rax,1)
   10e08:	66 2e 0f 1f 84 00 00 00 00 00 	cs nopw 0x0(%rax,%rax,1)
   10e12:	66 2e 0f 1f 84 00 00 00 00 00 	cs nopw 0x0(%rax,%rax,1)
   10e1c:	66 2e 0f 1f 84 00 00 00 00 00 	cs nopw 0x0(%rax,%rax,1)
   10e26:	66 2e 0f 1f 84 00 00 00 00 00 	cs nopw 0x0(%rax,%rax,1)
   10e30:	66 2e 0f 1f 84 00 00 00 00 00 	cs nopw 0x0(%rax,%rax,1)
   10e3a:	66 2e 0f 1f 84 00 00 00 00 00 	cs nopw 0x0(%rax,%rax,1)
   10e44:	66 2e 0f 1f 84 00 00 00 00 00 	cs nopw 0x0(%rax,%rax,1)
   10e4e:	66 2e 0f 1f 84 00 00 00 00 00 	cs nopw 0x0(%rax,%rax,1)
   10e58:	66 2e 0f 1f 84 00 00 00 00 00 	cs nopw 0x0(%rax,%rax,1)
   10e62:	66 2e 0f 1f 84 00 00 00 00 00 	cs nopw 0x0(%rax,%rax,1)
   10e6c:	66 2e 0f 1f 84 00 00 00 00 00 	cs nopw 0x0(%rax,%rax,1)
   10e76:	66 2e 0f 1f 84 00 00 00 00 00 	cs nopw 0x0(%rax,%rax,1)
   10e80:	66 2e 0f 1f 84 00 00 00 00 00 	cs nopw 0x0(%rax,%rax,1)
   10e8a:	66 2e 0f 1f 84 00 00 00 00 00 	cs nopw 0x0(%rax,%rax,1)
   10e94:	66 2e 0f 1f 84 00 00 00 00 00 	cs nopw 0x0(%rax,%rax,1)
   10e9e:	66 2e 0f 1f 84 00 00 00 00 00 	cs nopw 0x0(%rax,%rax,1)
   10ea8:	66 2e 0f 1f 84 00 00 00 00 00 	cs nopw 0x0(%rax,%rax,1)
   10eb2:	66 2e 0f 1f 84 00 00 00 00 00 	cs nopw 0x0(%rax,%rax,1)
   10ebc:	66 2e 0f 1f 84 00 00 00 00 00 	cs nopw 0x0(%rax,%rax,1)
   10ec6:	66 2e 0f 1f 84 00 00 00 00 00 	cs nopw 0x0(%rax,%rax,1)
   10ed0:	66 2e 0f 1f 84 00 00 00 00 00 	cs nopw 0x0(%rax,%rax,1)
   10eda:	66 2e 0f 1f 84 00 00 00 00 00 	cs nopw 0x0(%rax,%rax,1)
   10ee4:	66 2e 0f 1f 84 00 00 00 00 00 	cs nopw 0x0(%rax,%rax,1)
   10eee:	66 2e 0f 1f 84 00 00 00 00 00 	cs nopw 0x0(%rax,%rax,1)
   10ef8:	66 2e 0f 1f 84 00 00 00 00 00 	cs nopw 0x0(%rax,%rax,1)
   10f02:	66 2e 0f 1f 84 00 00 00 00 00 	cs nopw 0x0(%rax,%rax,1)
   10f0c:	66 2e 0f 1f 84 00 00 00 00 00 	cs nopw 0x0(%rax,%rax,1)
   10f16:	66 2e 0f 1f 84 00 00 00 00 00 	cs nopw 0x0(%rax,%rax,1)
   10f20:	66 2e 0f 1f 84 00 00 00 00 00 	cs nopw 0x0(%rax,%rax,1)
   10f2a:	66 2e 0f 1f 84 00 00 00 00 00 	cs nopw 0x0(%rax,%rax,1)
   10f34:	66 2e 0f 1f 84 00 00 00 00 00 	cs nopw 0x0(%rax,%rax,1)
   10f3e:	66 2e 0f 1f 84 00 00 00 00 00 	cs nopw 0x0(%rax,%rax,1)
   10f48:	66 2e 0f 1f 84 00 00 00 00 00 	cs nopw 0x0(%rax,%rax,1)
   10f52:	66 2e 0f 1f 84 00 00 00 00 00 	cs nopw 0x0(%rax,%rax,1)
   10f5c:	66 2e 0f 1f 84 00 00 00 00 00 	cs nopw 0x0(%rax,%rax,1)
   10f66:	66 2e 0f 1f 84 00 00 00 00 00 	cs nopw 0x0(%rax,%rax,1)
   10f70:	66 2e 0f 1f 84 00 00 00 00 00 	cs nopw 0x0(%rax,%rax,1)
   10f7a:	66 2e 0f 1f 84 00 00 00 00 00 	cs nopw 0x0(%rax,%rax,1)
   10f84:	66 2e 0f 1f 84 00 00 00 00 00 	cs nopw 0x0(%rax,%rax,1)
   10f8e:	66 2e 0f 1f 84 00 00 00 00 00 	cs nopw 0x0(%rax,%rax,1)
   10f98:	66 2e 0f 1f 84 00 00 00 00 00 	cs nopw 0x0(%rax,%rax,1)
   10fa2:	66 2e 0f 1f 84 00 00 00 00 00 	cs nopw 0x0(%rax,%rax,1)
   10fac:	66 2e 0f 1f 84 00 00 00 00 00 	cs nopw 0x0(%rax,%rax,1)
   10fb6:	66 2e 0f 1f 84 00 00 00 00 00 	cs nopw 0x0(%rax,%rax,1)
   10fc0:	66 2e 0f 1f 84 00 00 00 00 00 	cs nopw 0x0(%rax,%rax,1)
   10fca:	66 2e 0f 1f 84 00 00 00 00 00 	cs nopw 0x0(%rax,%rax,1)
   10fd4:	66 2e 0f 1f 84 00 00 00 00 00 	cs nopw 0x0(%rax,%rax,1)
   10fde:	66 2e 0f 1f 84 00 00 00 00 00 	cs nopw 0x0(%rax,%rax,1)
   10fe8:	66 2e 0f 1f 84 00 00 00 00 00 	cs nopw 0x0(%rax,%rax,1)
   10ff2:	66 2e 0f 1f 84 00 00 00 00 00 	cs nopw 0x0(%rax,%rax,1)
   10ffc:	66 2e 0f 1f 84 00 00 00 00 00 	cs nopw 0x0(%rax,%rax,1)
   11006:	66 2e 0f 1f 84 00 00 00 00 00 	cs nopw 0x0(%rax,%rax,1)
   11010:	66 2e 0f 1f 84 00 00 00 00 00 	cs nopw 0x0(%rax,%rax,1)
   1101a:	66 2e 0f 1f 84 00 00 00 00 00 	cs nopw 0x0(%rax,%rax,1)
   11024:	66 2e 0f 1f 84 00 00 00 00 00 	cs nopw 0x0(%rax,%rax,1)
   1102e:	66 2e 0f 1f 84 00 00 00 00 00 	cs nopw 0x0(%rax,%rax,1)
   11038:	66 2e 0f 1f 84 00 00 00 00 00 	cs nopw 0x0(%rax,%rax,1)
   11042:	66 2e 0f 1f 84 00 00 00 00 00 	cs nopw 0x0(%rax,%rax,1)
   1104c:	66 2e 0f 1f 84 00 00 00 00 00 	cs nopw 0x0(%rax,%rax,1)
   11056:	66 2e 0f 1f 84 00 00 00 00 00 	cs nopw 0x0(%rax,%rax,1)
   11060:	66 2e 0f 1f 84 00 00 00 00 00 	cs nopw 0x0(%rax,%rax,1)
   1106a:	66 2e 0f 1f 84 00 00 00 00 00 	cs nopw 0x0(%rax,%rax,1)
   11074:	66 2e 0f 1f 84 00 00 00 00 00 	cs nopw 0x0(%rax,%rax,1)
   1107e:	66 2e 0f 1f 84 00 00 00 00 00 	cs nopw 0x0(%rax,%rax,1)
   11088:	66 2e 0f 1f 84 00 00 00 00 00 	cs nopw 0x0(%rax,%rax,1)
   11092:	66 2e 0f 1f 84 00 00 00 00 00 	cs nopw 0x0(%rax,%rax,1)
   1109c:	66 2e 0f 1f 84 00 00 00 00 00 	cs nopw 0x0(%rax,%rax,1)
   110a6:	66 2e 0f 1f 84 00 00 00 00 00 	cs nopw 0x0(%rax,%rax,1)
   110b0:	66 2e 0f 1f 84 00 00 00 00 00 	cs nopw 0x0(%rax,%rax,1)
   110ba:	66 2e 0f 1f 84 00 00 00 00 00 	cs nopw 0x0(%rax,%rax,1)
   110c4:	66 2e 0f 1f 84 00 00 00 00 00 	cs nopw 0x0(%rax,%rax,1)
   110ce:	66 2e 0f 1f 84 00 00 00 00 00 	cs nopw 0x0(%rax,%rax,1)
   110d8:	66 2e 0f 1f 84 00 00 00 00 00 	cs nopw 0x0(%rax,%rax,1)
   110e2:	66 2e 0f 1f 84 00 00 00 00 00 	cs nopw 0x0(%rax,%rax,1)
   110ec:	66 2e 0f 1f 84 00 00 00 00 00 	cs nopw 0x0(%rax,%rax,1)
   110f6:	66 2e 0f 1f 84 00 00 00 00 00 	cs nopw 0x0(%rax,%rax,1)
   11100:	66 2e 0f 1f 84 00 00 00 00 00 	cs nopw 0x0(%rax,%rax,1)
   1110a:	66 2e 0f 1f 84 00 00 00 00 00 	cs nopw 0x0(%rax,%rax,1)
   11114:	66 2e 0f 1f 84 00 00 00 00 00 	cs nopw 0x0(%rax,%rax,1)
   1111e:	66 2e 0f 1f 84 00 00 00 00 00 	cs nopw 0x0(%rax,%rax,1)
   11128:	66 2e 0f 1f 84 00 00 00 00 00 	cs nopw 0x0(%rax,%rax,1)
   11132:	66 2e 0f 1f 84 00 00 00 00 00 	cs nopw 0x0(%rax,%rax,1)
   1113c:	66 2e 0f 1f 84 00 00 00 00 00 	cs nopw 0x0(%rax,%rax,1)
   11146:	66 2e 0f 1f 84 00 00 00 00 00 	cs nopw 0x0(%rax,%rax,1)
   11150:	66 2e 0f 1f 84 00 00 00 00 00 	cs nopw 0x0(%rax,%rax,1)
   1115a:	66 2e 0f 1f 84 00 00 00 00 00 	cs nopw 0x0(%rax,%rax,1)
   11164:	66 2e 0f 1f 84 00 00 00 00 00 	cs nopw 0x0(%rax,%rax,1)
   1116e:	66 2e 0f 1f 84 00 00 00 00 00 	cs nopw 0x0(%rax,%rax,1)
   11178:	66 2e 0f 1f 84 00 00 00 00 00 	cs nopw 0x0(%rax,%rax,1)
   11182:	66 2e 0f 1f 84 00 00 00 00 00 	cs nopw 0x0(%rax,%rax,1)
   1118c:	66 2e 0f 1f 84 00 00 00 00 00 	cs nopw 0x0(%rax,%rax,1)
   11196:	66 2e 0f 1f 84 00 00 00 00 00 	cs nopw 0x0(%rax,%rax,1)
   111a0:	66 2e 0f 1f 84 00 00 00 00 00 	cs nopw 0x0(%rax,%rax,1)
   111aa:	66 2e 0f 1f 84 00 00 00 00 00 	cs nopw 0x0(%rax,%rax,1)
   111b4:	66 2e 0f 1f 84 00 00 00 00 00 	cs nopw 0x0(%rax,%rax,1)
   111be:	66 2e 0f 1f 84 00 00 00 00 00 	cs nopw 0x0(%rax,%rax,1)
   111c8:	66 2e 0f 1f 84 00 00 00 00 00 	cs nopw 0x0(%rax,%rax,1)
   111d2:	66 2e 0f 1f 84 00 00 00 00 00 	cs nopw 0x0(%rax,%rax,1)
   111dc:	66 2e 0f 1f 84 00 00 00 00 00 	cs nopw 0x0(%rax,%rax,1)
   111e6:	66 2e 0f 1f 84 00 00 00 00 00 	cs nopw 0x0(%rax,%rax,1)
   111f0:	66 2e 0f 1f 84 00 00 00 00 00 	cs nopw 0x0(%rax,%rax,1)
   111fa:	66 2e 0f 1f 84 00 00 00 00 00 	cs nopw 0x0(%rax,%rax,1)
   11204:	66 2e 0f 1f 84 00 00 00 00 00 	cs nopw 0x0(%rax,%rax,1)
   1120e:	66 2e 0f 1f 84 00 00 00 00 00 	cs nopw 0x0(%rax,%rax,1)
   11218:	66 2e 0f 1f 84 00 00 00 00 00 	cs nopw 0x0(%rax,%rax,1)
   11222:	66 2e 0f 1f 84 00 00 00 00 00 	cs nopw 0x0(%rax,%rax,1)
   1122c:	66 2e 0f 1f 84 00 00 00 00 00 	cs nopw 0x0(%rax,%rax,1)
   11236:	66 2e 0f 1f 84 00 00 00 00 00 	cs nopw 0x0(%rax,%rax,1)
   11240:	66 2e 0f 1f 84 00 00 00 00 00 	cs nopw 0x0(%rax,%rax,1)
   1124a:	66 2e 0f 1f 84 00 00 00 00 00 	cs nopw 0x0(%rax,%rax,1)
   11254:	66 2e 0f 1f 84 00 00 00 00 00 	cs nopw 0x0(%rax,%rax,1)
   1125e:	66 2e 0f 1f 84 00 00 00 00 00 	cs nopw 0x0(%rax,%rax,1)
   11268:	66 2e 0f 1f 84 00 00 00 00 00 	cs nopw 0x0(%rax,%rax,1)
   11272:	66 2e 0f 1f 84 00 00 00 00 00 	cs nopw 0x0(%rax,%rax,1)
   1127c:	66 2e 0f 1f 84 00 00 00 00 00 	cs nopw 0x0(%rax,%rax,1)
   11286:	66 2e 0f 1f 84 00 00 00 00 00 	cs nopw 0x0(%rax,%rax,1)
   11290:	66 2e 0f 1f 84 00 00 00 00 00 	cs nopw 0x0(%rax,%rax,1)
   1129a:	66 2e 0f 1f 84 00 00 00 00 00 	cs nopw 0x0(%rax,%rax,1)
   112a4:	66 2e 0f 1f 84 00 00 00 00 00 	cs nopw 0x0(%rax,%rax,1)
   112ae:	66 2e 0f 1f 84 00 00 00 00 00 	cs nopw 0x0(%rax,%rax,1)
   112b8:	66 2e 0f 1f 84 00 00 00 00 00 	cs nopw 0x0(%rax,%rax,1)
   112c2:	66 2e 0f 1f 84 00 00 00 00 00 	cs nopw 0x0(%rax,%rax,1)
   112cc:	66 2e 0f 1f 84 00 00 00 00 00 	cs nopw 0x0(%rax,%rax,1)
   112d6:	66 2e 0f 1f 84 00 00 00 00 00 	cs nopw 0x0(%rax,%rax,1)
   112e0:	66 2e 0f 1f 84 00 00 00 00 00 	cs nopw 0x0(%rax,%rax,1)
   112ea:	66 2e 0f 1f 84 00 00 00 00 00 	cs nopw 0x0(%rax,%rax,1)
   112f4:	66 2e 0f 1f 84 00 00 00 00 00 	cs nopw 0x0(%rax,%rax,1)
   112fe:	66 2e 0f 1f 84 00 00 00 00 00 	cs nopw 0x0(%rax,%rax,1)
   11308:	66 2e 0f 1f 84 00 00 00 00 00 	cs nopw 0x0(%rax,%rax,1)
   11312:	66 2e 0f 1f 84 00 00 00 00 00 	cs nopw 0x0(%rax,%rax,1)
   1131c:	66 2e 0f 1f 84 00 00 00 00 00 	cs nopw 0x0(%rax,%rax,1)
   11326:	66 2e 0f 1f 84 00 00 00 00 00 	cs nopw 0x0(%rax,%rax,1)
   11330:	66 2e 0f 1f 84 00 00 00 00 00 	cs nopw 0x0(%rax,%rax,1)
   1133a:	66 2e 0f 1f 84 00 00 00 00 00 	cs nopw 0x0(%rax,%rax,1)
   11344:	66 2e 0f 1f 84 00 00 00 00 00 	cs nopw 0x0(%rax,%rax,1)
   1134e:	66 2e 0f 1f 84 00 00 00 00 00 	cs nopw 0x0(%rax,%rax,1)
   11358:	66 2e 0f 1f 84 00 00 00 00 00 	cs nopw 0x0(%rax,%rax,1)
   11362:	66 2e 0f 1f 84 00 00 00 00 00 	cs nopw 0x0(%rax,%rax,1)
   1136c:	66 2e 0f 1f 84 00 00 00 00 00 	cs nopw 0x0(%rax,%rax,1)
   11376:	66 2e 0f 1f 84 00 00 00 00 00 	cs nopw 0x0(%rax,%rax,1)
   11380:	66 2e 0f 1f 84 00 00 00 00 00 	cs nopw 0x0(%rax,%rax,1)
   1138a:	66 2e 0f 1f 84 00 00 00 00 00 	cs nopw 0x0(%rax,%rax,1)
   11394:	66 2e 0f 1f 84 00 00 00 00 00 	cs nopw 0x0(%rax,%rax,1)
   1139e:	66 2e 0f 1f 84 00 00 00 00 00 	cs nopw 0x0(%rax,%rax,1)
   113a8:	66 2e 0f 1f 84 00 00 00 00 00 	cs nopw 0x0(%rax,%rax,1)
   113b2:	66 2e 0f 1f 84 00 00 00 00 00 	cs nopw 0x0(%rax,%rax,1)
   113bc:	66 2e 0f 1f 84 00 00 00 00 00 	cs nopw 0x0(%rax,%rax,1)
   113c6:	66 2e 0f 1f 84 00 00 00 00 00 	cs nopw 0x0(%rax,%rax,1)
   113d0:	66 2e 0f 1f 84 00 00 00 00 00 	cs nopw 0x0(%rax,%rax,1)
   113da:	66 2e 0f 1f 84 00 00 00 00 00 	cs nopw 0x0(%rax,%rax,1)
   113e4:	66 2e 0f 1f 84 00 00 00 00 00 	cs nopw 0x0(%rax,%rax,1)
   113ee:	66 2e 0f 1f 84 00 00 00 00 00 	cs nopw 0x0(%rax,%rax,1)
   113f8:	66 2e 0f 1f 84 00 00 00 00 00 	cs nopw 0x0(%rax,%rax,1)
   11402:	66 2e 0f 1f 84 00 00 00 00 00 	cs nopw 0x0(%rax,%rax,1)
   1140c:	66 2e 0f 1f 84 00 00 00 00 00 	cs nopw 0x0(%rax,%rax,1)
   11416:	66 2e 0f 1f 84 00 00 00 00 00 	cs nopw 0x0(%rax,%rax,1)
   11420:	66 2e 0f 1f 84 00 00 00 00 00 	cs nopw 0x0(%rax,%rax,1)
   1142a:	66 2e 0f 1f 84 00 00 00 00 00 	cs nopw 0x0(%rax,%rax,1)
   11434:	66 2e 0f 1f 84 00 00 00 00 00 	cs nopw 0x0(%rax,%rax,1)
   1143e:	66 2e 0f 1f 84 00 00 00 00 00 	cs nopw 0x0(%rax,%rax,1)
   11448:	66 2e 0f 1f 84 00 00 00 00 00 	cs nopw 0x0(%rax,%rax,1)
   11452:	66 2e 0f 1f 84 00 00 00 00 00 	cs nopw 0x0(%rax,%rax,1)
   1145c:	66 2e 0f 1f 84 00 00 00 00 00 	cs nopw 0x0(%rax,%rax,1)
   11466:	66 2e 0f 1f 84 00 00 00 00 00 	cs nopw 0x0(%rax,%rax,1)
   11470:	66 2e 0f 1f 84 00 00 00 00 00 	cs nopw 0x0(%rax,%rax,1)
   1147a:	66 2e 0f 1f 84 00 00 00 00 00 	cs nopw 0x0(%rax,%rax,1)
   11484:	66 2e 0f 1f 84 00 00 00 00 00 	cs nopw 0x0(%rax,%rax,1)
   1148e:	66 2e 0f 1f 84 00 00 00 00 00 	cs nopw 0x0(%rax,%rax,1)
   11498:	66 2e 0f 1f 84 00 00 00 00 00 	cs nopw 0x0(%rax,%rax,1)
   114a2:	66 2e 0f 1f 84 00 00 00 00 00 	cs nopw 0x0(%rax,%rax,1)
   114ac:	66 2e 0f 1f 84 00 00 00 00 00 	cs nopw 0x0(%rax,%rax,1)
   114b6:	66 2e 0f 1f 84 00 00 00 00 00 	cs nopw 0x0(%rax,%rax,1)
   114c0:	66 2e 0f 1f 84 00 00 00 00 00 	cs nopw 0x0(%rax,%rax,1)
   114ca:	66 2e 0f 1f 84 00 00 00 00 00 	cs nopw 0x0(%rax,%rax,1)
   114d4:	66 2e 0f 1f 84 00 00 00 00 00 	cs nopw 0x0(%rax,%rax,1)
   114de:	66 2e 0f 1f 84 00 00 00 00 00 	cs nopw 0x0(%rax,%rax,1)
   114e8:	66 2e 0f 1f 84 00 00 00 00 00 	cs nopw 0x0(%rax,%rax,1)
   114f2:	66 2e 0f 1f 84 00 00 00 00 00 	cs nopw 0x0(%rax,%rax,1)
   114fc:	66 2e 0f 1f 84 00 00 00 00 00 	cs nopw 0x0(%rax,%rax,1)
   11506:	66 2e 0f 1f 84 00 00 00 00 00 	cs nopw 0x0(%rax,%rax,1)
   11510:	66 2e 0f 1f 84 00 00 00 00 00 	cs nopw 0x0(%rax,%rax,1)
   1151a:	66 2e 0f 1f 84 00 00 00 00 00 	cs nopw 0x0(%rax,%rax,1)
   11524:	66 2e 0f 1f 84 00 00 00 00 00 	cs nopw 0x0(%rax,%rax,1)
   1152e:	66 2e 0f 1f 84 00 00 00 00 00 	cs nopw 0x0(%rax,%rax,1)
   11538:	66 2e 0f 1f 84 00 00 00 00 00 	cs nopw 0x0(%rax,%rax,1)
   11542:	66 2e 0f 1f 84 00 00 00 00 00 	cs nopw 0x0(%rax,%rax,1)
   1154c:	66 2e 0f 1f 84 00 00 00 00 00 	cs nopw 0x0(%rax,%rax,1)
   11556:	66 2e 0f 1f 84 00 00 00 00 00 	cs nopw 0x0(%rax,%rax,1)
   11560:	66 2e 0f 1f 84 00 00 00 00 00 	cs nopw 0x0(%rax,%rax,1)
   1156a:	66 2e 0f 1f 84 00 00 00 00 00 	cs nopw 0x0(%rax,%rax,1)
   11574:	66 2e 0f 1f 84 00 00 00 00 00 	cs nopw 0x0(%rax,%rax,1)
   1157e:	66 2e 0f 1f 84 00 00 00 00 00 	cs nopw 0x0(%rax,%rax,1)
   11588:	66 2e 0f 1f 84 00 00 00 00 00 	cs nopw 0x0(%rax,%rax,1)
   11592:	66 2e 0f 1f 84 00 00 00 00 00 	cs nopw 0x0(%rax,%rax,1)
   1159c:	66 2e 0f 1f 84 00 00 00 00 00 	cs nopw 0x0(%rax,%rax,1)
   115a6:	66 2e 0f 1f 84 00 00 00 00 00 	cs nopw 0x0(%rax,%rax,1)
   115b0:	66 2e 0f 1f 84 00 00 00 00 00 	cs nopw 0x0(%rax,%rax,1)
   115ba:	66 2e 0f 1f 84 00 00 00 00 00 	cs nopw 0x0(%rax,%rax,1)
   115c4:	66 2e 0f 1f 84 00 00 00 00 00 	cs nopw 0x0(%rax,%rax,1)
   115ce:	66 2e 0f 1f 84 00 00 00 00 00 	cs nopw 0x0(%rax,%rax,1)
   115d8:	66 2e 0f 1f 84 00 00 00 00 00 	cs nopw 0x0(%rax,%rax,1)
   115e2:	66 2e 0f 1f 84 00 00 00 00 00 	cs nopw 0x0(%rax,%rax,1)
   115ec:	66 2e 0f 1f 84 00 00 00 00 00 	cs nopw 0x0(%rax,%rax,1)
   115f6:	66 2e 0f 1f 84 00 00 00 00 00 	cs nopw 0x0(%rax,%rax,1)
   11600:	66 2e 0f 1f 84 00 00 00 00 00 	cs nopw 0x0(%rax,%rax,1)
   1160a:	66 2e 0f 1f 84 00 00 00 00 00 	cs nopw 0x0(%rax,%rax,1)
   11614:	66 2e 0f 1f 84 00 00 00 00 00 	cs nopw 0x0(%rax,%rax,1)
   1161e:	66 2e 0f 1f 84 00 00 00 00 00 	cs nopw 0x0(%rax,%rax,1)
   11628:	66 2e 0f 1f 84 00 00 00 00 00 	cs nopw 0x0(%rax,%rax,1)
   11632:	66 2e 0f 1f 84 00 00 00 00 00 	cs nopw 0x0(%rax,%rax,1)
   1163c:	66 2e 0f 1f 84 00 00 00 00 00 	cs nopw 0x0(%rax,%rax,1)
   11646:	66 2e 0f 1f 84 00 00 00 00 00 	cs nopw 0x0(%rax,%rax,1)
   11650:	66 2e 0f 1f 84 00 00 00 00 00 	cs nopw 0x0(%rax,%rax,1)
   1165a:	66 2e 0f 1f 84 00 00 00 00 00 	cs nopw 0x0(%rax,%rax,1)
   11664:	66 2e 0f 1f 84 00 00 00 00 00 	cs nopw 0x0(%rax,%rax,1)
   1166e:	66 2e 0f 1f 84 00 00 00 00 00 	cs nopw 0x0(%rax,%rax,1)
   11678:	66 2e 0f 1f 84 00 00 00 00 00 	cs nopw 0x0(%rax,%rax,1)
   11682:	66 2e 0f 1f 84 00 00 00 00 00 	cs nopw 0x0(%rax,%rax,1)
   1168c:	66 2e 0f 1f 84 00 00 00 00 00 	cs nopw 0x0(%rax,%rax,1)
   11696:	66 2e 0f 1f 84 00 00 00 00 00 	cs nopw 0x0(%rax,%rax,1)
   116a0:	66 2e 0f 1f 84 00 00 00 00 00 	cs nopw 0x0(%rax,%rax,1)
   116aa:	66 2e 0f 1f 84 00 00 00 00 00 	cs nopw 0x0(%rax,%rax,1)
   116b4:	66 2e 0f 1f 84 00 00 00 00 00 	cs nopw 0x0(%rax,%rax,1)
   116be:	66 2e 0f 1f 84 00 00 00 00 00 	cs nopw 0x0(%rax,%rax,1)
   116c8:	66 2e 0f 1f 84 00 00 00 00 00 	cs nopw 0x0(%rax,%rax,1)
   116d2:	66 2e 0f 1f 84 00 00 00 00 00 	cs nopw 0x0(%rax,%rax,1)
   116dc:	66 2e 0f 1f 84 00 00 00 00 00 	cs nopw 0x0(%rax,%rax,1)
   116e6:	66 2e 0f 1f 84 00 00 00 00 00 	cs nopw 0x0(%rax,%rax,1)
   116f0:	66 2e 0f 1f 84 00 00 00 00 00 	cs nopw 0x0(%rax,%rax,1)
   116fa:	66 2e 0f 1f 84 00 00 00 00 00 	cs nopw 0x0(%rax,%rax,1)
   11704:	66 2e 0f 1f 84 00 00 00 00 00 	cs nopw 0x0(%rax,%rax,1)
   1170e:	66 2e 0f 1f 84 00 00 00 00 00 	cs nopw 0x0(%rax,%rax,1)
   11718:	66 2e 0f 1f 84 00 00 00 00 00 	cs nopw 0x0(%rax,%rax,1)
   11722:	66 2e 0f 1f 84 00 00 00 00 00 	cs nopw 0x0(%rax,%rax,1)
   1172c:	66 2e 0f 1f 84 00 00 00 00 00 	cs nopw 0x0(%rax,%rax,1)
   11736:	66 2e 0f 1f 84 00 00 00 00 00 	cs nopw 0x0(%rax,%rax,1)
   11740:	66 2e 0f 1f 84 00 00 00 00 00 	cs nopw 0x0(%rax,%rax,1)
   1174a:	66 2e 0f 1f 84 00 00 00 00 00 	cs nopw 0x0(%rax,%rax,1)
   11754:	66 2e 0f 1f 84 00 00 00 00 00 	cs nopw 0x0(%rax,%rax,1)
   1175e:	66 2e 0f 1f 84 00 00 00 00 00 	cs nopw 0x0(%rax,%rax,1)
   11768:	66 2e 0f 1f 84 00 00 00 00 00 	cs nopw 0x0(%rax,%rax,1)
   11772:	66 2e 0f 1f 84 00 00 00 00 00 	cs nopw 0x0(%rax,%rax,1)
   1177c:	66 2e 0f 1f 84 00 00 00 00 00 	cs nopw 0x0(%rax,%rax,1)
   11786:	66 2e 0f 1f 84 00 00 00 00 00 	cs nopw 0x0(%rax,%rax,1)
   11790:	66 2e 0f 1f 84 00 00 00 00 00 	cs nopw 0x0(%rax,%rax,1)
   1179a:	66 2e 0f 1f 84 00 00 00 00 00 	cs nopw 0x0(%rax,%rax,1)
   117a4:	66 2e 0f 1f 84 00 00 00 00 00 	cs nopw 0x0(%rax,%rax,1)
   117ae:	66 2e 0f 1f 84 00 00 00 00 00 	cs nopw 0x0(%rax,%rax,1)
   117b8:	66 2e 0f 1f 84 00 00 00 00 00 	cs nopw 0x0(%rax,%rax,1)
   117c2:	66 2e 0f 1f 84 00 00 00 00 00 	cs nopw 0x0(%rax,%rax,1)
   117cc:	66 2e 0f 1f 84 00 00 00 00 00 	cs nopw 0x0(%rax,%rax,1)
   117d6:	66 2e 0f 1f 84 00 00 00 00 00 	cs nopw 0x0(%rax,%rax,1)
   117e0:	66 2e 0f 1f 84 00 00 00 00 00 	cs nopw 0x0(%rax,%rax,1)
   117ea:	66 2e 0f 1f 84 00 00 00 00 00 	cs nopw 0x0(%rax,%rax,1)
   117f4:	66 2e 0f 1f 84 00 00 00 00 00 	cs nopw 0x0(%rax,%rax,1)
   117fe:	66 2e 0f 1f 84 00 00 00 00 00 	cs nopw 0x0(%rax,%rax,1)
   11808:	66 2e 0f 1f 84 00 00 00 00 00 	cs nopw 0x0(%rax,%rax,1)
   11812:	66 2e 0f 1f 84 00 00 00 00 00 	cs nopw 0x0(%rax,%rax,1)
   1181c:	66 2e 0f 1f 84 00 00 00 00 00 	cs nopw 0x0(%rax,%rax,1)
   11826:	66 2e 0f 1f 84 00 00 00 00 00 	cs nopw 0x0(%rax,%rax,1)
   11830:	66 2e 0f 1f 84 00 00 00 00 00 	cs nopw 0x0(%rax,%rax,1)
   1183a:	66 2e 0f 1f 84 00 00 00 00 00 	cs nopw 0x0(%rax,%rax,1)
   11844:	66 2e 0f 1f 84 00 00 00 00 00 	cs nopw 0x0(%rax,%rax,1)
   1184e:	66 2e 0f 1f 84 00 00 00 00 00 	cs nopw 0x0(%rax,%rax,1)
   11858:	66 2e 0f 1f 84 00 00 00 00 00 	cs nopw 0x0(%rax,%rax,1)
   11862:	66 2e 0f 1f 84 00 00 00 00 00 	cs nopw 0x0(%rax,%rax,1)
   1186c:	66 2e 0f 1f 84 00 00 00 00 00 	cs nopw 0x0(%rax,%rax,1)
   11876:	66 2e 0f 1f 84 00 00 00 00 00 	cs nopw 0x0(%rax,%rax,1)
   11880:	66 2e 0f 1f 84 00 00 00 00 00 	cs nopw 0x0(%rax,%rax,1)
   1188a:	66 2e 0f 1f 84 00 00 00 00 00 	cs nopw 0x0(%rax,%rax,1)
   11894:	66 2e 0f 1f 84 00 00 00 00 00 	cs nopw 0x0(%rax,%rax,1)
   1189e:	66 2e 0f 1f 84 00 00 00 00 00 	cs nopw 0x0(%rax,%rax,1)
   118a8:	66 2e 0f 1f 84 00 00 00 00 00 	cs nopw 0x0(%rax,%rax,1)
   118b2:	66 2e 0f 1f 84 00 00 00 00 00 	cs nopw 0x0(%rax,%rax,1)
   118bc:	66 2e 0f 1f 84 00 00 00 00 00 	cs nopw 0x0(%rax,%rax,1)
   118c6:	66 2e 0f 1f 84 00 00 00 00 00 	cs nopw 0x0(%rax,%rax,1)
   118d0:	66 2e 0f 1f 84 00 00 00 00 00 	cs nopw 0x0(%rax,%rax,1)
   118da:	66 2e 0f 1f 84 00 00 00 00 00 	cs nopw 0x0(%rax,%rax,1)
   118e4:	66 2e 0f 1f 84 00 00 00 00 00 	cs nopw 0x0(%rax,%rax,1)
   118ee:	66 2e 0f 1f 84 00 00 00 00 00 	cs nopw 0x0(%rax,%rax,1)
   118f8:	66 2e 0f 1f 84 00 00 00 00 00 	cs nopw 0x0(%rax,%rax,1)
   11902:	66 2e 0f 1f 84 00 00 00 00 00 	cs nopw 0x0(%rax,%rax,1)
   1190c:	66 2e 0f 1f 84 00 00 00 00 00 	cs nopw 0x0(%rax,%rax,1)
   11916:	66 2e 0f 1f 84 00 00 00 00 00 	cs nopw 0x0(%rax,%rax,1)
   11920:	66 2e 0f 1f 84 00 00 00 00 00 	cs nopw 0x0(%rax,%rax,1)
   1192a:	66 2e 0f 1f 84 00 00 00 00 00 	cs nopw 0x0(%rax,%rax,1)
   11934:	66 2e 0f 1f 84 00 00 00 00 00 	cs nopw 0x0(%rax,%rax,1)
   1193e:	66 2e 0f 1f 84 00 00 00 00 00 	cs nopw 0x0(%rax,%rax,1)
   11948:	66 2e 0f 1f 84 00 00 00 00 00 	cs nopw 0x0(%rax,%rax,1)
   11952:	66 2e 0f 1f 84 00 00 00 00 00 	cs nopw 0x0(%rax,%rax,1)
   1195c:	66 2e 0f 1f 84 00 00 00 00 00 	cs nopw 0x0(%rax,%rax,1)
   11966:	66 2e 0f 1f 84 00 00 00 00 00 	cs nopw 0x0(%rax,%rax,1)
   11970:	66 2e 0f 1f 84 00 00 00 00 00 	cs nopw 0x0(%rax,%rax,1)
   1197a:	66 2e 0f 1f 84 00 00 00 00 00 	cs nopw 0x0(%rax,%rax,1)
   11984:	66 2e 0f 1f 84 00 00 00 00 00 	cs nopw 0x0(%rax,%rax,1)
   1198e:	66 2e 0f 1f 84 00 00 00 00 00 	cs nopw 0x0(%rax,%rax,1)
   11998:	66 2e 0f 1f 84 00 00 00 00 00 	cs nopw 0x0(%rax,%rax,1)
   119a2:	66 2e 0f 1f 84 00 00 00 00 00 	cs nopw 0x0(%rax,%rax,1)
   119ac:	66 2e 0f 1f 84 00 00 00 00 00 	cs nopw 0x0(%rax,%rax,1)
   119b6:	66 2e 0f 1f 84 00 00 00 00 00 	cs nopw 0x0(%rax,%rax,1)
   119c0:	66 2e 0f 1f 84 00 00 00 00 00 	cs nopw 0x0(%rax,%rax,1)
   119ca:	66 2e 0f 1f 84 00 00 00 00 00 	cs nopw 0x0(%rax,%rax,1)
   119d4:	66 2e 0f 1f 84 00 00 00 00 00 	cs nopw 0x0(%rax,%rax,1)
   119de:	66 2e 0f 1f 84 00 00 00 00 00 	cs nopw 0x0(%rax,%rax,1)
   119e8:	66 2e 0f 1f 84 00 00 00 00 00 	cs nopw 0x0(%rax,%rax,1)
   119f2:	66 2e 0f 1f 84 00 00 00 00 00 	cs nopw 0x0(%rax,%rax,1)
   119fc:	66 2e 0f 1f 84 00 00 00 00 00 	cs nopw 0x0(%rax,%rax,1)
   11a06:	66 2e 0f 1f 84 00 00 00 00 00 	cs nopw 0x0(%rax,%rax,1)
   11a10:	66 2e 0f 1f 84 00 00 00 00 00 	cs nopw 0x0(%rax,%rax,1)
   11a1a:	66 2e 0f 1f 84 00 00 00 00 00 	cs nopw 0x0(%rax,%rax,1)
   11a24:	66 2e 0f 1f 84 00 00 00 00 00 	cs nopw 0x0(%rax,%rax,1)
   11a2e:	66 2e 0f 1f 84 00 00 00 00 00 	cs nopw 0x0(%rax,%rax,1)
   11a38:	66 2e 0f 1f 84 00 00 00 00 00 	cs nopw 0x0(%rax,%rax,1)
   11a42:	66 2e 0f 1f 84 00 00 00 00 00 	cs nopw 0x0(%rax,%rax,1)
   11a4c:	66 2e 0f 1f 84 00 00 00 00 00 	cs nopw 0x0(%rax,%rax,1)
   11a56:	66 2e 0f 1f 84 00 00 00 00 00 	cs nopw 0x0(%rax,%rax,1)
   11a60:	66 2e 0f 1f 84 00 00 00 00 00 	cs nopw 0x0(%rax,%rax,1)
   11a6a:	66 2e 0f 1f 84 00 00 00 00 00 	cs nopw 0x0(%rax,%rax,1)
   11a74:	66 2e 0f 1f 84 00 00 00 00 00 	cs nopw 0x0(%rax,%rax,1)
   11a7e:	66 2e 0f 1f 84 00 00 00 00 00 	cs nopw 0x0(%rax,%rax,1)
   11a88:	66 2e 0f 1f 84 00 00 00 00 00 	cs nopw 0x0(%rax,%rax,1)
   11a92:	66 2e 0f 1f 84 00 00 00 00 00 	cs nopw 0x0(%rax,%rax,1)
   11a9c:	66 2e 0f 1f 84 00 00 00 00 00 	cs nopw 0x0(%rax,%rax,1)
   11aa6:	66 2e 0f 1f 84 00 00 00 00 00 	cs nopw 0x0(%rax,%rax,1)
   11ab0:	66 2e 0f 1f 84 00 00 00 00 00 	cs nopw 0x0(%rax,%rax,1)
   11aba:	66 2e 0f 1f 84 00 00 00 00 00 	cs nopw 0x0(%rax,%rax,1)
   11ac4:	66 2e 0f 1f 84 00 00 00 00 00 	cs nopw 0x0(%rax,%rax,1)
   11ace:	66 2e 0f 1f 84 00 00 00 00 00 	cs nopw 0x0(%rax,%rax,1)
   11ad8:	66 2e 0f 1f 84 00 00 00 00 00 	cs nopw 0x0(%rax,%rax,1)
   11ae2:	66 2e 0f 1f 84 00 00 00 00 00 	cs nopw 0x0(%rax,%rax,1)
   11aec:	66 2e 0f 1f 84 00 00 00 00 00 	cs nopw 0x0(%rax,%rax,1)
   11af6:	66 2e 0f 1f 84 00 00 00 00 00 	cs nopw 0x0(%rax,%rax,1)
   11b00:	66 2e 0f 1f 84 00 00 00 00 00 	cs nopw 0x0(%rax,%rax,1)
   11b0a:	66 2e 0f 1f 84 00 00 00 00 00 	cs nopw 0x0(%rax,%rax,1)
   11b14:	66 2e 0f 1f 84 00 00 00 00 00 	cs nopw 0x0(%rax,%rax,1)
   11b1e:	66 2e 0f 1f 84 00 00 00 00 00 	cs nopw 0x0(%rax,%rax,1)
   11b28:	66 2e 0f 1f 84 00 00 00 00 00 	cs nopw 0x0(%rax,%rax,1)
   11b32:	66 2e 0f 1f 84 00 00 00 00 00 	cs nopw 0x0(%rax,%rax,1)
   11b3c:	66 2e 0f 1f 84 00 00 00 00 00 	cs nopw 0x0(%rax,%rax,1)
   11b46:	66 2e 0f 1f 84 00 00 00 00 00 	cs nopw 0x0(%rax,%rax,1)
   11b50:	66 2e 0f 1f 84 00 00 00 00 00 	cs nopw 0x0(%rax,%rax,1)
   11b5a:	66 2e 0f 1f 84 00 00 00 00 00 	cs nopw 0x0(%rax,%rax,1)
   11b64:	66 2e 0f 1f 84 00 00 00 00 00 	cs nopw 0x0(%rax,%rax,1)
   11b6e:	66 2e 0f 1f 84 00 00 00 00 00 	cs nopw 0x0(%rax,%rax,1)
   11b78:	66 2e 0f 1f 84 00 00 00 00 00 	cs nopw 0x0(%rax,%rax,1)
   11b82:	66 2e 0f 1f 84 00 00 00 00 00 	cs nopw 0x0(%rax,%rax,1)
   11b8c:	66 2e 0f 1f 84 00 00 00 00 00 	cs nopw 0x0(%rax,%rax,1)
   11b96:	66 2e 0f 1f 84 00 00 00 00 00 	cs nopw 0x0(%rax,%rax,1)
   11ba0:	66 2e 0f 1f 84 00 00 00 00 00 	cs nopw 0x0(%rax,%rax,1)
   11baa:	66 2e 0f 1f 84 00 00 00 00 00 	cs nopw 0x0(%rax,%rax,1)
   11bb4:	66 2e 0f 1f 84 00 00 00 00 00 	cs nopw 0x0(%rax,%rax,1)
   11bbe:	66 2e 0f 1f 84 00 00 00 00 00 	cs nopw 0x0(%rax,%rax,1)
   11bc8:	66 2e 0f 1f 84 00 00 00 00 00 	cs nopw 0x0(%rax,%rax,1)
   11bd2:	66 2e 0f 1f 84 00 00 00 00 00 	cs nopw 0x0(%rax,%rax,1)
   11bdc:	66 2e 0f 1f 84 00 00 00 00 00 	cs nopw 0x0(%rax,%rax,1)
   11be6:	66 2e 0f 1f 84 00 00 00 00 00 	cs nopw 0x0(%rax,%rax,1)
   11bf0:	66 2e 0f 1f 84 00 00 00 00 00 	cs nopw 0x0(%rax,%rax,1)
   11bfa:	66 2e 0f 1f 84 00 00 00 00 00 	cs nopw 0x0(%rax,%rax,1)
   11c04:	66 2e 0f 1f 84 00 00 00 00 00 	cs nopw 0x0(%rax,%rax,1)
   11c0e:	66 2e 0f 1f 84 00 00 00 00 00 	cs nopw 0x0(%rax,%rax,1)
   11c18:	66 2e 0f 1f 84 00 00 00 00 00 	cs nopw 0x0(%rax,%rax,1)
   11c22:	66 2e 0f 1f 84 00 00 00 00 00 	cs nopw 0x0(%rax,%rax,1)
   11c2c:	66 2e 0f 1f 84 00 00 00 00 00 	cs nopw 0x0(%rax,%rax,1)
   11c36:	66 2e 0f 1f 84 00 00 00 00 00 	cs nopw 0x0(%rax,%rax,1)
   11c40:	66 2e 0f 1f 84 00 00 00 00 00 	cs nopw 0x0(%rax,%rax,1)
   11c4a:	66 2e 0f 1f 84 00 00 00 00 00 	cs nopw 0x0(%rax,%rax,1)
   11c54:	66 2e 0f 1f 84 00 00 00 00 00 	cs nopw 0x0(%rax,%rax,1)
   11c5e:	66 2e 0f 1f 84 00 00 00 00 00 	cs nopw 0x0(%rax,%rax,1)
   11c68:	66 2e 0f 1f 84 00 00 00 00 00 	cs nopw 0x0(%rax,%rax,1)
   11c72:	66 2e 0f 1f 84 00 00 00 00 00 	cs nopw 0x0(%rax,%rax,1)
   11c7c:	66 2e 0f 1f 84 00 00 00 00 00 	cs nopw 0x0(%rax,%rax,1)
   11c86:	66 2e 0f 1f 84 00 00 00 00 00 	cs nopw 0x0(%rax,%rax,1)
   11c90:	66 2e 0f 1f 84 00 00 00 00 00 	cs nopw 0x0(%rax,%rax,1)
   11c9a:	66 2e 0f 1f 84 00 00 00 00 00 	cs nopw 0x0(%rax,%rax,1)
   11ca4:	66 2e 0f 1f 84 00 00 00 00 00 	cs nopw 0x0(%rax,%rax,1)
   11cae:	66 2e 0f 1f 84 00 00 00 00 00 	cs nopw 0x0(%rax,%rax,1)
   11cb8:	66 2e 0f 1f 84 00 00 00 00 00 	cs nopw 0x0(%rax,%rax,1)
   11cc2:	66 2e 0f 1f 84 00 00 00 00 00 	cs nopw 0x0(%rax,%rax,1)
   11ccc:	66 2e 0f 1f 84 00 00 00 00 00 	cs nopw 0x0(%rax,%rax,1)
   11cd6:	66 2e 0f 1f 84 00 00 00 00 00 	cs nopw 0x0(%rax,%rax,1)
   11ce0:	66 2e 0f 1f 84 00 00 00 00 00 	cs nopw 0x0(%rax,%rax,1)
   11cea:	66 2e 0f 1f 84 00 00 00 00 00 	cs nopw 0x0(%rax,%rax,1)
   11cf4:	66 2e 0f 1f 84 00 00 00 00 00 	cs nopw 0x0(%rax,%rax,1)
   11cfe:	66 2e 0f 1f 84 00 00 00 00 00 	cs nopw 0x0(%rax,%rax,1)
   11d08:	66 2e 0f 1f 84 00 00 00 00 00 	cs nopw 0x0(%rax,%rax,1)
   11d12:	66 2e 0f 1f 84 00 00 00 00 00 	cs nopw 0x0(%rax,%rax,1)
   11d1c:	66 2e 0f 1f 84 00 00 00 00 00 	cs nopw 0x0(%rax,%rax,1)
   11d26:	66 2e 0f 1f 84 00 00 00 00 00 	cs nopw 0x0(%rax,%rax,1)
   11d30:	66 2e 0f 1f 84 00 00 00 00 00 	cs nopw 0x0(%rax,%rax,1)
   11d3a:	66 2e 0f 1f 84 00 00 00 00 00 	cs nopw 0x0(%rax,%rax,1)
   11d44:	66 2e 0f 1f 84 00 00 00 00 00 	cs nopw 0x0(%rax,%rax,1)
   11d4e:	66 2e 0f 1f 84 00 00 00 00 00 	cs nopw 0x0(%rax,%rax,1)
   11d58:	66 2e 0f 1f 84 00 00 00 00 00 	cs nopw 0x0(%rax,%rax,1)
   11d62:	66 2e 0f 1f 84 00 00 00 00 00 	cs nopw 0x0(%rax,%rax,1)
   11d6c:	66 2e 0f 1f 84 00 00 00 00 00 	cs nopw 0x0(%rax,%rax,1)
   11d76:	66 2e 0f 1f 84 00 00 00 00 00 	cs nopw 0x0(%rax,%rax,1)
   11d80:	66 2e 0f 1f 84 00 00 00 00 00 	cs nopw 0x0(%rax,%rax,1)
   11d8a:	66 2e 0f 1f 84 00 00 00 00 00 	cs nopw 0x0(%rax,%rax,1)
   11d94:	66 2e 0f 1f 84 00 00 00 00 00 	cs nopw 0x0(%rax,%rax,1)
   11d9e:	66 2e 0f 1f 84 00 00 00 00 00 	cs nopw 0x0(%rax,%rax,1)
   11da8:	66 2e 0f 1f 84 00 00 00 00 00 	cs nopw 0x0(%rax,%rax,1)
   11db2:	66 2e 0f 1f 84 00 00 00 00 00 	cs nopw 0x0(%rax,%rax,1)
   11dbc:	66 2e 0f 1f 84 00 00 00 00 00 	cs nopw 0x0(%rax,%rax,1)
   11dc6:	66 2e 0f 1f 84 00 00 00 00 00 	cs nopw 0x0(%rax,%rax,1)
   11dd0:	66 2e 0f 1f 84 00 00 00 00 00 	cs nopw 0x0(%rax,%rax,1)
   11dda:	66 2e 0f 1f 84 00 00 00 00 00 	cs nopw 0x0(%rax,%rax,1)
   11de4:	66 2e 0f 1f 84 00 00 00 00 00 	cs nopw 0x0(%rax,%rax,1)
   11dee:	66 2e 0f 1f 84 00 00 00 00 00 	cs nopw 0x0(%rax,%rax,1)
   11df8:	66 2e 0f 1f 84 00 00 00 00 00 	cs nopw 0x0(%rax,%rax,1)
   11e02:	66 2e 0f 1f 84 00 00 00 00 00 	cs nopw 0x0(%rax,%rax,1)
   11e0c:	66 2e 0f 1f 84 00 00 00 00 00 	cs nopw 0x0(%rax,%rax,1)
   11e16:	66 2e 0f 1f 84 00 00 00 00 00 	cs nopw 0x0(%rax,%rax,1)
   11e20:	66 2e 0f 1f 84 00 00 00 00 00 	cs nopw 0x0(%rax,%rax,1)
   11e2a:	66 2e 0f 1f 84 00 00 00 00 00 	cs nopw 0x0(%rax,%rax,1)
   11e34:	66 2e 0f 1f 84 00 00 00 00 00 	cs nopw 0x0(%rax,%rax,1)
   11e3e:	66 2e 0f 1f 84 00 00 00 00 00 	cs nopw 0x0(%rax,%rax,1)
   11e48:	66 2e 0f 1f 84 00 00 00 00 00 	cs nopw 0x0(%rax,%rax,1)
   11e52:	66 2e 0f 1f 84 00 00 00 00 00 	cs nopw 0x0(%rax,%rax,1)
   11e5c:	66 2e 0f 1f 84 00 00 00 00 00 	cs nopw 0x0(%rax,%rax,1)
   11e66:	66 2e 0f 1f 84 00 00 00 00 00 	cs nopw 0x0(%rax,%rax,1)
   11e70:	66 2e 0f 1f 84 00 00 00 00 00 	cs nopw 0x0(%rax,%rax,1)
   11e7a:	66 2e 0f 1f 84 00 00 00 00 00 	cs nopw 0x0(%rax,%rax,1)
   11e84:	66 2e 0f 1f 84 00 00 00 00 00 	cs nopw 0x0(%rax,%rax,1)
   11e8e:	66 2e 0f 1f 84 00 00 00 00 00 	cs nopw 0x0(%rax,%rax,1)
   11e98:	66 2e 0f 1f 84 00 00 00 00 00 	cs nopw 0x0(%rax,%rax,1)
   11ea2:	66 2e 0f 1f 84 00 00 00 00 00 	cs nopw 0x0(%rax,%rax,1)
   11eac:	66 2e 0f 1f 84 00 00 00 00 00 	cs nopw 0x0(%rax,%rax,1)
   11eb6:	66 2e 0f 1f 84 00 00 00 00 00 	cs nopw 0x0(%rax,%rax,1)
   11ec0:	66 2e 0f 1f 84 00 00 00 00 00 	cs nopw 0x0(%rax,%rax,1)
   11eca:	66 2e 0f 1f 84 00 00 00 00 00 	cs nopw 0x0(%rax,%rax,1)
   11ed4:	66 2e 0f 1f 84 00 00 00 00 00 	cs nopw 0x0(%rax,%rax,1)
   11ede:	66 2e 0f 1f 84 00 00 00 00 00 	cs nopw 0x0(%rax,%rax,1)
   11ee8:	66 2e 0f 1f 84 00 00 00 00 00 	cs nopw 0x0(%rax,%rax,1)
   11ef2:	66 2e 0f 1f 84 00 00 00 00 00 	cs nopw 0x0(%rax,%rax,1)
   11efc:	66 2e 0f 1f 84 00 00 00 00 00 	cs nopw 0x0(%rax,%rax,1)
   11f06:	66 2e 0f 1f 84 00 00 00 00 00 	cs nopw 0x0(%rax,%rax,1)
   11f10:	66 2e 0f 1f 84 00 00 00 00 00 	cs nopw 0x0(%rax,%rax,1)
   11f1a:	66 2e 0f 1f 84 00 00 00 00 00 	cs nopw 0x0(%rax,%rax,1)
   11f24:	66 2e 0f 1f 84 00 00 00 00 00 	cs nopw 0x0(%rax,%rax,1)
   11f2e:	66 2e 0f 1f 84 00 00 00 00 00 	cs nopw 0x0(%rax,%rax,1)
   11f38:	66 2e 0f 1f 84 00 00 00 00 00 	cs nopw 0x0(%rax,%rax,1)
   11f42:	66 2e 0f 1f 84 00 00 00 00 00 	cs nopw 0x0(%rax,%rax,1)
   11f4c:	66 2e 0f 1f 84 00 00 00 00 00 	cs nopw 0x0(%rax,%rax,1)
   11f56:	66 2e 0f 1f 84 00 00 00 00 00 	cs nopw 0x0(%rax,%rax,1)
   11f60:	66 2e 0f 1f 84 00 00 00 00 00 	cs nopw 0x0(%rax,%rax,1)
   11f6a:	66 2e 0f 1f 84 00 00 00 00 00 	cs nopw 0x0(%rax,%rax,1)
   11f74:	66 2e 0f 1f 84 00 00 00 00 00 	cs nopw 0x0(%rax,%rax,1)
   11f7e:	66 2e 0f 1f 84 00 00 00 00 00 	cs nopw 0x0(%rax,%rax,1)
   11f88:	66 2e 0f 1f 84 00 00 00 00 00 	cs nopw 0x0(%rax,%rax,1)
   11f92:	66 2e 0f 1f 84 00 00 00 00 00 	cs nopw 0x0(%rax,%rax,1)
   11f9c:	66 2e 0f 1f 84 00 00 00 00 00 	cs nopw 0x0(%rax,%rax,1)
   11fa6:	66 2e 0f 1f 84 00 00 00 00 00 	cs nopw 0x0(%rax,%rax,1)
   11fb0:	66 2e 0f 1f 84 00 00 00 00 00 	cs nopw 0x0(%rax,%rax,1)
   11fba:	66 2e 0f 1f 84 00 00 00 00 00 	cs nopw 0x0(%rax,%rax,1)
   11fc4:	66 2e 0f 1f 84 00 00 00 00 00 	cs nopw 0x0(%rax,%rax,1)
   11fce:	66 2e 0f 1f 84 00 00 00 00 00 	cs nopw 0x0(%rax,%rax,1)
   11fd8:	66 2e 0f 1f 84 00 00 00 00 00 	cs nopw 0x0(%rax,%rax,1)
   11fe2:	66 2e 0f 1f 84 00 00 00 00 00 	cs nopw 0x0(%rax,%rax,1)
   11fec:	66 2e 0f 1f 84 00 00 00 00 00 	cs nopw 0x0(%rax,%rax,1)
   11ff6:	66 2e 0f 1f 84 00 00 00 00 00 	cs nopw 0x0(%rax,%rax,1)
   12000:	66 2e 0f 1f 84 00 00 00 00 00 	cs nopw 0x0(%rax,%rax,1)
   1200a:	66 2e 0f 1f 84 00 00 00 00 00 	cs nopw 0x0(%rax,%rax,1)
   12014:	66 2e 0f 1f 84 00 00 00 00 00 	cs nopw 0x0(%rax,%rax,1)
   1201e:	66 2e 0f 1f 84 00 00 00 00 00 	cs nopw 0x0(%rax,%rax,1)
   12028:	66 2e 0f 1f 84 00 00 00 00 00 	cs nopw 0x0(%rax,%rax,1)
   12032:	66 2e 0f 1f 84 00 00 00 00 00 	cs nopw 0x0(%rax,%rax,1)
   1203c:	66 2e 0f 1f 84 00 00 00 00 00 	cs nopw 0x0(%rax,%rax,1)
   12046:	66 2e 0f 1f 84 00 00 00 00 00 	cs nopw 0x0(%rax,%rax,1)
   12050:	66 2e 0f 1f 84 00 00 00 00 00 	cs nopw 0x0(%rax,%rax,1)
   1205a:	66 2e 0f 1f 84 00 00 00 00 00 	cs nopw 0x0(%rax,%rax,1)
   12064:	66 2e 0f 1f 84 00 00 00 00 00 	cs nopw 0x0(%rax,%rax,1)
   1206e:	66 2e 0f 1f 84 00 00 00 00 00 	cs nopw 0x0(%rax,%rax,1)
   12078:	66 2e 0f 1f 84 00 00 00 00 00 	cs nopw 0x0(%rax,%rax,1)
   12082:	66 2e 0f 1f 84 00 00 00 00 00 	cs nopw 0x0(%rax,%rax,1)
   1208c:	66 2e 0f 1f 84 00 00 00 00 00 	cs nopw 0x0(%rax,%rax,1)
   12096:	66 2e 0f 1f 84 00 00 00 00 00 	cs nopw 0x0(%rax,%rax,1)
   120a0:	66 2e 0f 1f 84 00 00 00 00 00 	cs nopw 0x0(%rax,%rax,1)
   120aa:	66 2e 0f 1f 84 00 00 00 00 00 	cs nopw 0x0(%rax,%rax,1)
   120b4:	66 2e 0f 1f 84 00 00 00 00 00 	cs nopw 0x0(%rax,%rax,1)
   120be:	66 2e 0f 1f 84 00 00 00 00 00 	cs nopw 0x0(%rax,%rax,1)
   120c8:	66 2e 0f 1f 84 00 00 00 00 00 	cs nopw 0x0(%rax,%rax,1)
   120d2:	66 2e 0f 1f 84 00 00 00 00 00 	cs nopw 0x0(%rax,%rax,1)
   120dc:	66 2e 0f 1f 84 00 00 00 00 00 	cs nopw 0x0(%rax,%rax,1)
   120e6:	66 2e 0f 1f 84 00 00 00 00 00 	cs nopw 0x0(%rax,%rax,1)
   120f0:	66 2e 0f 1f 84 00 00 00 00 00 	cs nopw 0x0(%rax,%rax,1)
   120fa:	66 2e 0f 1f 84 00 00 00 00 00 	cs nopw 0x0(%rax,%rax,1)
   12104:	66 2e 0f 1f 84 00 00 00 00 00 	cs nopw 0x0(%rax,%rax,1)
   1210e:	66 2e 0f 1f 84 00 00 00 00 00 	cs nopw 0x0(%rax,%rax,1)
   12118:	66 2e 0f 1f 84 00 00 00 00 00 	cs nopw 0x0(%rax,%rax,1)
   12122:	66 2e 0f 1f 84 00 00 00 00 00 	cs nopw 0x0(%rax,%rax,1)
   1212c:	66 2e 0f 1f 84 00 00 00 00 00 	cs nopw 0x0(%rax,%rax,1)
   12136:	66 2e 0f 1f 84 00 00 00 00 00 	cs nopw 0x0(%rax,%rax,1)
   12140:	66 2e 0f 1f 84 00 00 00 00 00 	cs nopw 0x0(%rax,%rax,1)
   1214a:	66 2e 0f 1f 84 00 00 00 00 00 	cs nopw 0x0(%rax,%rax,1)
   12154:	66 2e 0f 1f 84 00 00 00 00 00 	cs nopw 0x0(%rax,%rax,1)
   1215e:	66 2e 0f 1f 84 00 00 00 00 00 	cs nopw 0x0(%rax,%rax,1)
   12168:	66 2e 0f 1f 84 00 00 00 00 00 	cs nopw 0x0(%rax,%rax,1)
   12172:	66 2e 0f 1f 84 00 00 00 00 00 	cs nopw 0x0(%rax,%rax,1)
   1217c:	66 2e 0f 1f 84 00 00 00 00 00 	cs nopw 0x0(%rax,%rax,1)
   12186:	66 2e 0f 1f 84 00 00 00 00 00 	cs nopw 0x0(%rax,%rax,1)
   12190:	66 2e 0f 1f 84 00 00 00 00 00 	cs nopw 0x0(%rax,%rax,1)
   1219a:	66 2e 0f 1f 84 00 00 00 00 00 	cs nopw 0x0(%rax,%rax,1)
   121a4:	66 2e 0f 1f 84 00 00 00 00 00 	cs nopw 0x0(%rax,%rax,1)
   121ae:	66 2e 0f 1f 84 00 00 00 00 00 	cs nopw 0x0(%rax,%rax,1)
   121b8:	66 2e 0f 1f 84 00 00 00 00 00 	cs nopw 0x0(%rax,%rax,1)
   121c2:	66 2e 0f 1f 84 00 00 00 00 00 	cs nopw 0x0(%rax,%rax,1)
   121cc:	66 2e 0f 1f 84 00 00 00 00 00 	cs nopw 0x0(%rax,%rax,1)
   121d6:	66 2e 0f 1f 84 00 00 00 00 00 	cs nopw 0x0(%rax,%rax,1)
   121e0:	66 2e 0f 1f 84 00 00 00 00 00 	cs nopw 0x0(%rax,%rax,1)
   121ea:	66 2e 0f 1f 84 00 00 00 00 00 	cs nopw 0x0(%rax,%rax,1)
   121f4:	66 2e 0f 1f 84 00 00 00 00 00 	cs nopw 0x0(%rax,%rax,1)
   121fe:	66 2e 0f 1f 84 00 00 00 00 00 	cs nopw 0x0(%rax,%rax,1)
   12208:	66 2e 0f 1f 84 00 00 00 00 00 	cs nopw 0x0(%rax,%rax,1)
   12212:	66 2e 0f 1f 84 00 00 00 00 00 	cs nopw 0x0(%rax,%rax,1)
   1221c:	66 2e 0f 1f 84 00 00 00 00 00 	cs nopw 0x0(%rax,%rax,1)
   12226:	66 2e 0f 1f 84 00 00 00 00 00 	cs nopw 0x0(%rax,%rax,1)
   12230:	66 2e 0f 1f 84 00 00 00 00 00 	cs nopw 0x0(%rax,%rax,1)
   1223a:	66 2e 0f 1f 84 00 00 00 00 00 	cs nopw 0x0(%rax,%rax,1)
   12244:	66 2e 0f 1f 84 00 00 00 00 00 	cs nopw 0x0(%rax,%rax,1)
   1224e:	66 2e 0f 1f 84 00 00 00 00 00 	cs nopw 0x0(%rax,%rax,1)
   12258:	66 2e 0f 1f 84 00 00 00 00 00 	cs nopw 0x0(%rax,%rax,1)
   12262:	66 2e 0f 1f 84 00 00 00 00 00 	cs nopw 0x0(%rax,%rax,1)
   1226c:	66 2e 0f 1f 84 00 00 00 00 00 	cs nopw 0x0(%rax,%rax,1)
   12276:	66 2e 0f 1f 84 00 00 00 00 00 	cs nopw 0x0(%rax,%rax,1)
   12280:	66 2e 0f 1f 84 00 00 00 00 00 	cs nopw 0x0(%rax,%rax,1)
   1228a:	66 2e 0f 1f 84 00 00 00 00 00 	cs nopw 0x0(%rax,%rax,1)
   12294:	66 2e 0f 1f 84 00 00 00 00 00 	cs nopw 0x0(%rax,%rax,1)
   1229e:	66 2e 0f 1f 84 00 00 00 00 00 	cs nopw 0x0(%rax,%rax,1)
   122a8:	66 2e 0f 1f 84 00 00 00 00 00 	cs nopw 0x0(%rax,%rax,1)
   122b2:	66 2e 0f 1f 84 00 00 00 00 00 	cs nopw 0x0(%rax,%rax,1)
   122bc:	66 2e 0f 1f 84 00 00 00 00 00 	cs nopw 0x0(%rax,%rax,1)
   122c6:	66 2e 0f 1f 84 00 00 00 00 00 	cs nopw 0x0(%rax,%rax,1)
   122d0:	66 2e 0f 1f 84 00 00 00 00 00 	cs nopw 0x0(%rax,%rax,1)
   122da:	66 2e 0f 1f 84 00 00 00 00 00 	cs nopw 0x0(%rax,%rax,1)
   122e4:	66 2e 0f 1f 84 00 00 00 00 00 	cs nopw 0x0(%rax,%rax,1)
   122ee:	66 2e 0f 1f 84 00 00 00 00 00 	cs nopw 0x0(%rax,%rax,1)
   122f8:	66 2e 0f 1f 84 00 00 00 00 00 	cs nopw 0x0(%rax,%rax,1)
   12302:	66 2e 0f 1f 84 00 00 00 00 00 	cs nopw 0x0(%rax,%rax,1)
   1230c:	66 2e 0f 1f 84 00 00 00 00 00 	cs nopw 0x0(%rax,%rax,1)
   12316:	66 2e 0f 1f 84 00 00 00 00 00 	cs nopw 0x0(%rax,%rax,1)
   12320:	66 2e 0f 1f 84 00 00 00 00 00 	cs nopw 0x0(%rax,%rax,1)
   1232a:	66 2e 0f 1f 84 00 00 00 00 00 	cs nopw 0x0(%rax,%rax,1)
   12334:	66 2e 0f 1f 84 00 00 00 00 00 	cs nopw 0x0(%rax,%rax,1)
   1233e:	66 2e 0f 1f 84 00 00 00 00 00 	cs nopw 0x0(%rax,%rax,1)
   12348:	66 2e 0f 1f 84 00 00 00 00 00 	cs nopw 0x0(%rax,%rax,1)
   12352:	66 2e 0f 1f 84 00 00 00 00 00 	cs nopw 0x0(%rax,%rax,1)
   1235c:	66 2e 0f 1f 84 00 00 00 00 00 	cs nopw 0x0(%rax,%rax,1)
   12366:	66 2e 0f 1f 84 00 00 00 00 00 	cs nopw 0x0(%rax,%rax,1)
   12370:	66 2e 0f 1f 84 00 00 00 00 00 	cs nopw 0x0(%rax,%rax,1)
   1237a:	66 2e 0f 1f 84 00 00 00 00 00 	cs nopw 0x0(%rax,%rax,1)
   12384:	66 2e 0f 1f 84 00 00 00 00 00 	cs nopw 0x0(%rax,%rax,1)
   1238e:	66 2e 0f 1f 84 00 00 00 00 00 	cs nopw 0x0(%rax,%rax,1)
   12398:	66 2e 0f 1f 84 00 00 00 00 00 	cs nopw 0x0(%rax,%rax,1)
   123a2:	66 2e 0f 1f 84 00 00 00 00 00 	cs nopw 0x0(%rax,%rax,1)
   123ac:	66 2e 0f 1f 84 00 00 00 00 00 	cs nopw 0x0(%rax,%rax,1)
   123b6:	66 2e 0f 1f 84 00 00 00 00 00 	cs nopw 0x0(%rax,%rax,1)
   123c0:	66 2e 0f 1f 84 00 00 00 00 00 	cs nopw 0x0(%rax,%rax,1)
   123ca:	66 2e 0f 1f 84 00 00 00 00 00 	cs nopw 0x0(%rax,%rax,1)
   123d4:	66 2e 0f 1f 84 00 00 00 00 00 	cs nopw 0x0(%rax,%rax,1)
   123de:	66 2e 0f 1f 84 00 00 00 00 00 	cs nopw 0x0(%rax,%rax,1)
   123e8:	66 2e 0f 1f 84 00 00 00 00 00 	cs nopw 0x0(%rax,%rax,1)
   123f2:	66 2e 0f 1f 84 00 00 00 00 00 	cs nopw 0x0(%rax,%rax,1)
   123fc:	66 2e 0f 1f 84 00 00 00 00 00 	cs nopw 0x0(%rax,%rax,1)
   12406:	66 2e 0f 1f 84 00 00 00 00 00 	cs nopw 0x0(%rax,%rax,1)
   12410:	66 2e 0f 1f 84 00 00 00 00 00 	cs nopw 0x0(%rax,%rax,1)
   1241a:	66 2e 0f 1f 84 00 00 00 00 00 	cs nopw 0x0(%rax,%rax,1)
   12424:	66 2e 0f 1f 84 00 00 00 00 00 	cs nopw 0x0(%rax,%rax,1)
   1242e:	66 2e 0f 1f 84 00 00 00 00 00 	cs nopw 0x0(%rax,%rax,1)
   12438:	66 2e 0f 1f 84 00 00 00 00 00 	cs nopw 0x0(%rax,%rax,1)
   12442:	66 2e 0f 1f 84 00 00 00 00 00 	cs nopw 0x0(%rax,%rax,1)
   1244c:	66 2e 0f 1f 84 00 00 00 00 00 	cs nopw 0x0(%rax,%rax,1)
   12456:	66 2e 0f 1f 84 00 00 00 00 00 	cs nopw 0x0(%rax,%rax,1)
   12460:	66 2e 0f 1f 84 00 00 00 00 00 	cs nopw 0x0(%rax,%rax,1)
   1246a:	66 2e 0f 1f 84 00 00 00 00 00 	cs nopw 0x0(%rax,%rax,1)
   12474:	66 2e 0f 1f 84 00 00 00 00 00 	cs nopw 0x0(%rax,%rax,1)
   1247e:	66 2e 0f 1f 84 00 00 00 00 00 	cs nopw 0x0(%rax,%rax,1)
   12488:	66 2e 0f 1f 84 00 00 00 00 00 	cs nopw 0x0(%rax,%rax,1)
   12492:	66 2e 0f 1f 84 00 00 00 00 00 	cs nopw 0x0(%rax,%rax,1)
   1249c:	66 2e 0f 1f 84 00 00 00 00 00 	cs nopw 0x0(%rax,%rax,1)
   124a6:	66 2e 0f 1f 84 00 00 00 00 00 	cs nopw 0x0(%rax,%rax,1)
   124b0:	66 2e 0f 1f 84 00 00 00 00 00 	cs nopw 0x0(%rax,%rax,1)
   124ba:	66 2e 0f 1f 84 00 00 00 00 00 	cs nopw 0x0(%rax,%rax,1)
   124c4:	66 2e 0f 1f 84 00 00 00 00 00 	cs nopw 0x0(%rax,%rax,1)
   124ce:	66 2e 0f 1f 84 00 00 00 00 00 	cs nopw 0x0(%rax,%rax,1)
   124d8:	66 2e 0f 1f 84 00 00 00 00 00 	cs nopw 0x0(%rax,%rax,1)
   124e2:	66 2e 0f 1f 84 00 00 00 00 00 	cs nopw 0x0(%rax,%rax,1)
   124ec:	66 2e 0f 1f 84 00 00 00 00 00 	cs nopw 0x0(%rax,%rax,1)
   124f6:	66 2e 0f 1f 84 00 00 00 00 00 	cs nopw 0x0(%rax,%rax,1)
   12500:	66 2e 0f 1f 84 00 00 00 00 00 	cs nopw 0x0(%rax,%rax,1)
   1250a:	66 2e 0f 1f 84 00 00 00 00 00 	cs nopw 0x0(%rax,%rax,1)
   12514:	66 2e 0f 1f 84 00 00 00 00 00 	cs nopw 0x0(%rax,%rax,1)
   1251e:	66 2e 0f 1f 84 00 00 00 00 00 	cs nopw 0x0(%rax,%rax,1)
   12528:	66 2e 0f 1f 84 00 00 00 00 00 	cs nopw 0x0(%rax,%rax,1)
   12532:	66 2e 0f 1f 84 00 00 00 00 00 	cs nopw 0x0(%rax,%rax,1)
   1253c:	66 2e 0f 1f 84 00 00 00 00 00 	cs nopw 0x0(%rax,%rax,1)
   12546:	66 2e 0f 1f 84 00 00 00 00 00 	cs nopw 0x0(%rax,%rax,1)
   12550:	66 2e 0f 1f 84 00 00 00 00 00 	cs nopw 0x0(%rax,%rax,1)
   1255a:	66 2e 0f 1f 84 00 00 00 00 00 	cs nopw 0x0(%rax,%rax,1)
   12564:	66 2e 0f 1f 84 00 00 00 00 00 	cs nopw 0x0(%rax,%rax,1)
   1256e:	66 2e 0f 1f 84 00 00 00 00 00 	cs nopw 0x0(%rax,%rax,1)
   12578:	66 2e 0f 1f 84 00 00 00 00 00 	cs nopw 0x0(%rax,%rax,1)
   12582:	66 2e 0f 1f 84 00 00 00 00 00 	cs nopw 0x0(%rax,%rax,1)
   1258c:	66 2e 0f 1f 84 00 00 00 00 00 	cs nopw 0x0(%rax,%rax,1)
   12596:	66 2e 0f 1f 84 00 00 00 00 00 	cs nopw 0x0(%rax,%rax,1)
   125a0:	66 2e 0f 1f 84 00 00 00 00 00 	cs nopw 0x0(%rax,%rax,1)
   125aa:	66 2e 0f 1f 84 00 00 00 00 00 	cs nopw 0x0(%rax,%rax,1)
   125b4:	66 2e 0f 1f 84 00 00 00 00 00 	cs nopw 0x0(%rax,%rax,1)
   125be:	66 2e 0f 1f 84 00 00 00 00 00 	cs nopw 0x0(%rax,%rax,1)
   125c8:	66 2e 0f 1f 84 00 00 00 00 00 	cs nopw 0x0(%rax,%rax,1)
   125d2:	66 2e 0f 1f 84 00 00 00 00 00 	cs nopw 0x0(%rax,%rax,1)
   125dc:	66 2e 0f 1f 84 00 00 00 00 00 	cs nopw 0x0(%rax,%rax,1)
   125e6:	66 2e 0f 1f 84 00 00 00 00 00 	cs nopw 0x0(%rax,%rax,1)
   125f0:	66 2e 0f 1f 84 00 00 00 00 00 	cs nopw 0x0(%rax,%rax,1)
   125fa:	66 2e 0f 1f 84 00 00 00 00 00 	cs nopw 0x0(%rax,%rax,1)
   12604:	66 2e 0f 1f 84 00 00 00 00 00 	cs nopw 0x0(%rax,%rax,1)
   1260e:	66 2e 0f 1f 84 00 00 00 00 00 	cs nopw 0x0(%rax,%rax,1)
   12618:	66 2e 0f 1f 84 00 00 00 00 00 	cs nopw 0x0(%rax,%rax,1)
   12622:	66 2e 0f 1f 84 00 00 00 00 00 	cs nopw 0x0(%rax,%rax,1)
   1262c:	66 2e 0f 1f 84 00 00 00 00 00 	cs nopw 0x0(%rax,%rax,1)
   12636:	66 2e 0f 1f 84 00 00 00 00 00 	cs nopw 0x0(%rax,%rax,1)
   12640:	66 2e 0f 1f 84 00 00 00 00 00 	cs nopw 0x0(%rax,%rax,1)
   1264a:	66 2e 0f 1f 84 00 00 00 00 00 	cs nopw 0x0(%rax,%rax,1)
   12654:	66 2e 0f 1f 84 00 00 00 00 00 	cs nopw 0x0(%rax,%rax,1)
   1265e:	66 2e 0f 1f 84 00 00 00 00 00 	cs nopw 0x0(%rax,%rax,1)
   12668:	66 2e 0f 1f 84 00 00 00 00 00 	cs nopw 0x0(%rax,%rax,1)
   12672:	66 2e 0f 1f 84 00 00 00 00 00 	cs nopw 0x0(%rax,%rax,1)
   1267c:	66 2e 0f 1f 84 00 00 00 00 00 	cs nopw 0x0(%rax,%rax,1)
   12686:	66 2e 0f 1f 84 00 00 00 00 00 	cs nopw 0x0(%rax,%rax,1)
   12690:	66 2e 0f 1f 84 00 00 00 00 00 	cs nopw 0x0(%rax,%rax,1)
   1269a:	66 2e 0f 1f 84 00 00 00 00 00 	cs nopw 0x0(%rax,%rax,1)
   126a4:	66 2e 0f 1f 84 00 00 00 00 00 	cs nopw 0x0(%rax,%rax,1)
   126ae:	66 2e 0f 1f 84 00 00 00 00 00 	cs nopw 0x0(%rax,%rax,1)
   126b8:	66 2e 0f 1f 84 00 00 00 00 00 	cs nopw 0x0(%rax,%rax,1)
   126c2:	66 2e 0f 1f 84 00 00 00 00 00 	cs nopw 0x0(%rax,%rax,1)
   126cc:	66 2e 0f 1f 84 00 00 00 00 00 	cs nopw 0x0(%rax,%rax,1)
   126d6:	66 2e 0f 1f 84 00 00 00 00 00 	cs nopw 0x0(%rax,%rax,1)
   126e0:	66 2e 0f 1f 84 00 00 00 00 00 	cs nopw 0x0(%rax,%rax,1)
   126ea:	66 2e 0f 1f 84 00 00 00 00 00 	cs nopw 0x0(%rax,%rax,1)
   126f4:	66 2e 0f 1f 84 00 00 00 00 00 	cs nopw 0x0(%rax,%rax,1)
   126fe:	66 2e 0f 1f 84 00 00 00 00 00 	cs nopw 0x0(%rax,%rax,1)
   12708:	66 2e 0f 1f 84 00 00 00 00 00 	cs nopw 0x0(%rax,%rax,1)
   12712:	66 2e 0f 1f 84 00 00 00 00 00 	cs nopw 0x0(%rax,%rax,1)
   1271c:	66 2e 0f 1f 84 00 00 00 00 00 	cs nopw 0x0(%rax,%rax,1)
   12726:	66 2e 0f 1f 84 00 00 00 00 00 	cs nopw 0x0(%rax,%rax,1)
   12730:	66 2e 0f 1f 84 00 00 00 00 00 	cs nopw 0x0(%rax,%rax,1)
   1273a:	66 2e 0f 1f 84 00 00 00 00 00 	cs nopw 0x0(%rax,%rax,1)
   12744:	66 2e 0f 1f 84 00 00 00 00 00 	cs nopw 0x0(%rax,%rax,1)
   1274e:	66 2e 0f 1f 84 00 00 00 00 00 	cs nopw 0x0(%rax,%rax,1)
   12758:	66 2e 0f 1f 84 00 00 00 00 00 	cs nopw 0x0(%rax,%rax,1)
   12762:	66 2e 0f 1f 84 00 00 00 00 00 	cs nopw 0x0(%rax,%rax,1)
   1276c:	66 2e 0f 1f 84 00 00 00 00 00 	cs nopw 0x0(%rax,%rax,1)
   12776:	66 2e 0f 1f 84 00 00 00 00 00 	cs nopw 0x0(%rax,%rax,1)
   12780:	66 2e 0f 1f 84 00 00 00 00 00 	cs nopw 0x0(%rax,%rax,1)
   1278a:	66 2e 0f 1f 84 00 00 00 00 00 	cs nopw 0x0(%rax,%rax,1)
   12794:	66 2e 0f 1f 84 00 00 00 00 00 	cs nopw 0x0(%rax,%rax,1)
   1279e:	66 2e 0f 1f 84 00 00 00 00 00 	cs nopw 0x0(%rax,%rax,1)
   127a8:	66 2e 0f 1f 84 00 00 00 00 00 	cs nopw 0x0(%rax,%rax,1)
   127b2:	66 2e 0f 1f 84 00 00 00 00 00 	cs nopw 0x0(%rax,%rax,1)
   127bc:	66 2e 0f 1f 84 00 00 00 00 00 	cs nopw 0x0(%rax,%rax,1)
   127c6:	66 2e 0f 1f 84 00 00 00 00 00 	cs nopw 0x0(%rax,%rax,1)
   127d0:	66 2e 0f 1f 84 00 00 00 00 00 	cs nopw 0x0(%rax,%rax,1)
   127da:	66 2e 0f 1f 84 00 00 00 00 00 	cs nopw 0x0(%rax,%rax,1)
   127e4:	66 2e 0f 1f 84 00 00 00 00 00 	cs nopw 0x0(%rax,%rax,1)
   127ee:	66 2e 0f 1f 84 00 00 00 00 00 	cs nopw 0x0(%rax,%rax,1)
   127f8:	66 2e 0f 1f 84 00 00 00 00 00 	cs nopw 0x0(%rax,%rax,1)
   12802:	66 2e 0f 1f 84 00 00 00 00 00 	cs nopw 0x0(%rax,%rax,1)
   1280c:	66 2e 0f 1f 84 00 00 00 00 00 	cs nopw 0x0(%rax,%rax,1)
   12816:	66 2e 0f 1f 84 00 00 00 00 00 	cs nopw 0x0(%rax,%rax,1)
   12820:	66 2e 0f 1f 84 00 00 00 00 00 	cs nopw 0x0(%rax,%rax,1)
   1282a:	66 2e 0f 1f 84 00 00 00 00 00 	cs nopw 0x0(%rax,%rax,1)
   12834:	66 2e 0f 1f 84 00 00 00 00 00 	cs nopw 0x0(%rax,%rax,1)
   1283e:	66 2e 0f 1f 84 00 00 00 00 00 	cs nopw 0x0(%rax,%rax,1)
   12848:	66 2e 0f 1f 84 00 00 00 00 00 	cs nopw 0x0(%rax,%rax,1)
   12852:	66 2e 0f 1f 84 00 00 00 00 00 	cs nopw 0x0(%rax,%rax,1)
   1285c:	66 2e 0f 1f 84 00 00 00 00 00 	cs nopw 0x0(%rax,%rax,1)
   12866:	66 2e 0f 1f 84 00 00 00 00 00 	cs nopw 0x0(%rax,%rax,1)
   12870:	66 2e 0f 1f 84 00 00 00 00 00 	cs nopw 0x0(%rax,%rax,1)
   1287a:	66 2e 0f 1f 84 00 00 00 00 00 	cs nopw 0x0(%rax,%rax,1)
   12884:	66 2e 0f 1f 84 00 00 00 00 00 	cs nopw 0x0(%rax,%rax,1)
   1288e:	66 2e 0f 1f 84 00 00 00 00 00 	cs nopw 0x0(%rax,%rax,1)
   12898:	66 2e 0f 1f 84 00 00 00 00 00 	cs nopw 0x0(%rax,%rax,1)
   128a2:	66 2e 0f 1f 84 00 00 00 00 00 	cs nopw 0x0(%rax,%rax,1)
   128ac:	66 2e 0f 1f 84 00 00 00 00 00 	cs nopw 0x0(%rax,%rax,1)
   128b6:	66 2e 0f 1f 84 00 00 00 00 00 	cs nopw 0x0(%rax,%rax,1)
   128c0:	66 2e 0f 1f 84 00 00 00 00 00 	cs nopw 0x0(%rax,%rax,1)
   128ca:	66 2e 0f 1f 84 00 00 00 00 00 	cs nopw 0x0(%rax,%rax,1)
   128d4:	66 2e 0f 1f 84 00 00 00 00 00 	cs nopw 0x0(%rax,%rax,1)
   128de:	66 2e 0f 1f 84 00 00 00 00 00 	cs nopw 0x0(%rax,%rax,1)
   128e8:	66 2e 0f 1f 84 00 00 00 00 00 	cs nopw 0x0(%rax,%rax,1)
   128f2:	66 2e 0f 1f 84 00 00 00 00 00 	cs nopw 0x0(%rax,%rax,1)
   128fc:	66 2e 0f 1f 84 00 00 00 00 00 	cs nopw 0x0(%rax,%rax,1)
   12906:	66 2e 0f 1f 84 00 00 00 00 00 	cs nopw 0x0(%rax,%rax,1)
   12910:	66 2e 0f 1f 84 00 00 00 00 00 	cs nopw 0x0(%rax,%rax,1)
   1291a:	66 2e 0f 1f 84 00 00 00 00 00 	cs nopw 0x0(%rax,%rax,1)
   12924:	66 2e 0f 1f 84 00 00 00 00 00 	cs nopw 0x0(%rax,%rax,1)
   1292e:	66 2e 0f 1f 84 00 00 00 00 00 	cs nopw 0x0(%rax,%rax,1)
   12938:	66 2e 0f 1f 84 00 00 00 00 00 	cs nopw 0x0(%rax,%rax,1)
   12942:	66 2e 0f 1f 84 00 00 00 00 00 	cs nopw 0x0(%rax,%rax,1)
   1294c:	66 2e 0f 1f 84 00 00 00 00 00 	cs nopw 0x0(%rax,%rax,1)
   12956:	66 2e 0f 1f 84 00 00 00 00 00 	cs nopw 0x0(%rax,%rax,1)
   12960:	66 2e 0f 1f 84 00 00 00 00 00 	cs nopw 0x0(%rax,%rax,1)
   1296a:	66 2e 0f 1f 84 00 00 00 00 00 	cs nopw 0x0(%rax,%rax,1)
   12974:	66 2e 0f 1f 84 00 00 00 00 00 	cs nopw 0x0(%rax,%rax,1)
   1297e:	66 2e 0f 1f 84 00 00 00 00 00 	cs nopw 0x0(%rax,%rax,1)
   12988:	66 2e 0f 1f 84 00 00 00 00 00 	cs nopw 0x0(%rax,%rax,1)
   12992:	66 2e 0f 1f 84 00 00 00 00 00 	cs nopw 0x0(%rax,%rax,1)
   1299c:	66 2e 0f 1f 84 00 00 00 00 00 	cs nopw 0x0(%rax,%rax,1)
   129a6:	66 2e 0f 1f 84 00 00 00 00 00 	cs nopw 0x0(%rax,%rax,1)
   129b0:	66 2e 0f 1f 84 00 00 00 00 00 	cs nopw 0x0(%rax,%rax,1)
   129ba:	66 2e 0f 1f 84 00 00 00 00 00 	cs nopw 0x0(%rax,%rax,1)
   129c4:	66 2e 0f 1f 84 00 00 00 00 00 	cs nopw 0x0(%rax,%rax,1)
   129ce:	66 2e 0f 1f 84 00 00 00 00 00 	cs nopw 0x0(%rax,%rax,1)
   129d8:	66 2e 0f 1f 84 00 00 00 00 00 	cs nopw 0x0(%rax,%rax,1)
   129e2:	66 2e 0f 1f 84 00 00 00 00 00 	cs nopw 0x0(%rax,%rax,1)
   129ec:	66 2e 0f 1f 84 00 00 00 00 00 	cs nopw 0x0(%rax,%rax,1)
   129f6:	66 2e 0f 1f 84 00 00 00 00 00 	cs nopw 0x0(%rax,%rax,1)
   12a00:	66 2e 0f 1f 84 00 00 00 00 00 	cs nopw 0x0(%rax,%rax,1)
   12a0a:	66 2e 0f 1f 84 00 00 00 00 00 	cs nopw 0x0(%rax,%rax,1)
   12a14:	66 2e 0f 1f 84 00 00 00 00 00 	cs nopw 0x0(%rax,%rax,1)
   12a1e:	66 2e 0f 1f 84 00 00 00 00 00 	cs nopw 0x0(%rax,%rax,1)
   12a28:	66 2e 0f 1f 84 00 00 00 00 00 	cs nopw 0x0(%rax,%rax,1)
   12a32:	66 2e 0f 1f 84 00 00 00 00 00 	cs nopw 0x0(%rax,%rax,1)
   12a3c:	66 2e 0f 1f 84 00 00 00 00 00 	cs nopw 0x0(%rax,%rax,1)
   12a46:	66 2e 0f 1f 84 00 00 00 00 00 	cs nopw 0x0(%rax,%rax,1)
   12a50:	66 2e 0f 1f 84 00 00 00 00 00 	cs nopw 0x0(%rax,%rax,1)
   12a5a:	66 2e 0f 1f 84 00 00 00 00 00 	cs nopw 0x0(%rax,%rax,1)
   12a64:	66 2e 0f 1f 84 00 00 00 00 00 	cs nopw 0x0(%rax,%rax,1)
   12a6e:	66 2e 0f 1f 84 00 00 00 00 00 	cs nopw 0x0(%rax,%rax,1)
   12a78:	66 2e 0f 1f 84 00 00 00 00 00 	cs nopw 0x0(%rax,%rax,1)
   12a82:	66 2e 0f 1f 84 00 00 00 00 00 	cs nopw 0x0(%rax,%rax,1)
   12a8c:	66 2e 0f 1f 84 00 00 00 00 00 	cs nopw 0x0(%rax,%rax,1)
   12a96:	66 2e 0f 1f 84 00 00 00 00 00 	cs nopw 0x0(%rax,%rax,1)
   12aa0:	66 2e 0f 1f 84 00 00 00 00 00 	cs nopw 0x0(%rax,%rax,1)
   12aaa:	66 2e 0f 1f 84 00 00 00 00 00 	cs nopw 0x0(%rax,%rax,1)
   12ab4:	66 2e 0f 1f 84 00 00 00 00 00 	cs nopw 0x0(%rax,%rax,1)
   12abe:	66 2e 0f 1f 84 00 00 00 00 00 	cs nopw 0x0(%rax,%rax,1)
   12ac8:	66 2e 0f 1f 84 00 00 00 00 00 	cs nopw 0x0(%rax,%rax,1)
   12ad2:	66 2e 0f 1f 84 00 00 00 00 00 	cs nopw 0x0(%rax,%rax,1)
   12adc:	66 2e 0f 1f 84 00 00 00 00 00 	cs nopw 0x0(%rax,%rax,1)
   12ae6:	66 2e 0f 1f 84 00 00 00 00 00 	cs nopw 0x0(%rax,%rax,1)
   12af0:	66 2e 0f 1f 84 00 00 00 00 00 	cs nopw 0x0(%rax,%rax,1)
   12afa:	66 2e 0f 1f 84 00 00 00 00 00 	cs nopw 0x0(%rax,%rax,1)
   12b04:	66 2e 0f 1f 84 00 00 00 00 00 	cs nopw 0x0(%rax,%rax,1)
   12b0e:	66 2e 0f 1f 84 00 00 00 00 00 	cs nopw 0x0(%rax,%rax,1)
   12b18:	66 2e 0f 1f 84 00 00 00 00 00 	cs nopw 0x0(%rax,%rax,1)
   12b22:	66 2e 0f 1f 84 00 00 00 00 00 	cs nopw 0x0(%rax,%rax,1)
   12b2c:	66 2e 0f 1f 84 00 00 00 00 00 	cs nopw 0x0(%rax,%rax,1)
   12b36:	66 2e 0f 1f 84 00 00 00 00 00 	cs nopw 0x0(%rax,%rax,1)
   12b40:	66 2e 0f 1f 84 00 00 00 00 00 	cs nopw 0x0(%rax,%rax,1)
   12b4a:	66 2e 0f 1f 84 00 00 00 00 00 	cs nopw 0x0(%rax,%rax,1)
   12b54:	66 2e 0f 1f 84 00 00 00 00 00 	cs nopw 0x0(%rax,%rax,1)
   12b5e:	66 2e 0f 1f 84 00 00 00 00 00 	cs nopw 0x0(%rax,%rax,1)
   12b68:	66 2e 0f 1f 84 00 00 00 00 00 	cs nopw 0x0(%rax,%rax,1)
   12b72:	66 2e 0f 1f 84 00 00 00 00 00 	cs nopw 0x0(%rax,%rax,1)
   12b7c:	66 2e 0f 1f 84 00 00 00 00 00 	cs nopw 0x0(%rax,%rax,1)
   12b86:	66 2e 0f 1f 84 00 00 00 00 00 	cs nopw 0x0(%rax,%rax,1)
   12b90:	66 2e 0f 1f 84 00 00 00 00 00 	cs nopw 0x0(%rax,%rax,1)
   12b9a:	66 2e 0f 1f 84 00 00 00 00 00 	cs nopw 0x0(%rax,%rax,1)
   12ba4:	66 2e 0f 1f 84 00 00 00 00 00 	cs nopw 0x0(%rax,%rax,1)
   12bae:	66 2e 0f 1f 84 00 00 00 00 00 	cs nopw 0x0(%rax,%rax,1)
   12bb8:	66 2e 0f 1f 84 00 00 00 00 00 	cs nopw 0x0(%rax,%rax,1)
   12bc2:	66 2e 0f 1f 84 00 00 00 00 00 	cs nopw 0x0(%rax,%rax,1)
   12bcc:	66 2e 0f 1f 84 00 00 00 00 00 	cs nopw 0x0(%rax,%rax,1)
   12bd6:	66 2e 0f 1f 84 00 00 00 00 00 	cs nopw 0x0(%rax,%rax,1)
   12be0:	66 2e 0f 1f 84 00 00 00 00 00 	cs nopw 0x0(%rax,%rax,1)
   12bea:	66 2e 0f 1f 84 00 00 00 00 00 	cs nopw 0x0(%rax,%rax,1)
   12bf4:	66 2e 0f 1f 84 00 00 00 00 00 	cs nopw 0x0(%rax,%rax,1)
   12bfe:	66 2e 0f 1f 84 00 00 00 00 00 	cs nopw 0x0(%rax,%rax,1)
   12c08:	66 2e 0f 1f 84 00 00 00 00 00 	cs nopw 0x0(%rax,%rax,1)
   12c12:	66 2e 0f 1f 84 00 00 00 00 00 	cs nopw 0x0(%rax,%rax,1)
   12c1c:	66 2e 0f 1f 84 00 00 00 00 00 	cs nopw 0x0(%rax,%rax,1)
   12c26:	66 2e 0f 1f 84 00 00 00 00 00 	cs nopw 0x0(%rax,%rax,1)
   12c30:	66 2e 0f 1f 84 00 00 00 00 00 	cs nopw 0x0(%rax,%rax,1)
   12c3a:	66 2e 0f 1f 84 00 00 00 00 00 	cs nopw 0x0(%rax,%rax,1)
   12c44:	66 2e 0f 1f 84 00 00 00 00 00 	cs nopw 0x0(%rax,%rax,1)
   12c4e:	66 2e 0f 1f 84 00 00 00 00 00 	cs nopw 0x0(%rax,%rax,1)
   12c58:	66 2e 0f 1f 84 00 00 00 00 00 	cs nopw 0x0(%rax,%rax,1)
   12c62:	66 2e 0f 1f 84 00 00 00 00 00 	cs nopw 0x0(%rax,%rax,1)
   12c6c:	66 2e 0f 1f 84 00 00 00 00 00 	cs nopw 0x0(%rax,%rax,1)
   12c76:	66 2e 0f 1f 84 00 00 00 00 00 	cs nopw 0x0(%rax,%rax,1)
   12c80:	66 2e 0f 1f 84 00 00 00 00 00 	cs nopw 0x0(%rax,%rax,1)
   12c8a:	66 2e 0f 1f 84 00 00 00 00 00 	cs nopw 0x0(%rax,%rax,1)
   12c94:	66 2e 0f 1f 84 00 00 00 00 00 	cs nopw 0x0(%rax,%rax,1)
   12c9e:	66 2e 0f 1f 84 00 00 00 00 00 	cs nopw 0x0(%rax,%rax,1)
   12ca8:	66 2e 0f 1f 84 00 00 00 00 00 	cs nopw 0x0(%rax,%rax,1)
   12cb2:	66 2e 0f 1f 84 00 00 00 00 00 	cs nopw 0x0(%rax,%rax,1)
   12cbc:	66 2e 0f 1f 84 00 00 00 00 00 	cs nopw 0x0(%rax,%rax,1)
   12cc6:	66 2e 0f 1f 84 00 00 00 00 00 	cs nopw 0x0(%rax,%rax,1)
   12cd0:	66 2e 0f 1f 84 00 00 00 00 00 	cs nopw 0x0(%rax,%rax,1)
   12cda:	66 2e 0f 1f 84 00 00 00 00 00 	cs nopw 0x0(%rax,%rax,1)
   12ce4:	66 2e 0f 1f 84 00 00 00 00 00 	cs nopw 0x0(%rax,%rax,1)
   12cee:	66 2e 0f 1f 84 00 00 00 00 00 	cs nopw 0x0(%rax,%rax,1)
   12cf8:	66 2e 0f 1f 84 00 00 00 00 00 	cs nopw 0x0(%rax,%rax,1)
   12d02:	66 2e 0f 1f 84 00 00 00 00 00 	cs nopw 0x0(%rax,%rax,1)
   12d0c:	66 2e 0f 1f 84 00 00 00 00 00 	cs nopw 0x0(%rax,%rax,1)
   12d16:	66 2e 0f 1f 84 00 00 00 00 00 	cs nopw 0x0(%rax,%rax,1)
   12d20:	66 2e 0f 1f 84 00 00 00 00 00 	cs nopw 0x0(%rax,%rax,1)
   12d2a:	66 2e 0f 1f 84 00 00 00 00 00 	cs nopw 0x0(%rax,%rax,1)
   12d34:	66 2e 0f 1f 84 00 00 00 00 00 	cs nopw 0x0(%rax,%rax,1)
   12d3e:	66 2e 0f 1f 84 00 00 00 00 00 	cs nopw 0x0(%rax,%rax,1)
   12d48:	66 2e 0f 1f 84 00 00 00 00 00 	cs nopw 0x0(%rax,%rax,1)
   12d52:	66 2e 0f 1f 84 00 00 00 00 00 	cs nopw 0x0(%rax,%rax,1)
   12d5c:	66 2e 0f 1f 84 00 00 00 00 00 	cs nopw 0x0(%rax,%rax,1)
   12d66:	66 2e 0f 1f 84 00 00 00 00 00 	cs nopw 0x0(%rax,%rax,1)
   12d70:	66 2e 0f 1f 84 00 00 00 00 00 	cs nopw 0x0(%rax,%rax,1)
   12d7a:	66 2e 0f 1f 84 00 00 00 00 00 	cs nopw 0x0(%rax,%rax,1)
   12d84:	66 2e 0f 1f 84 00 00 00 00 00 	cs nopw 0x0(%rax,%rax,1)
   12d8e:	66 2e 0f 1f 84 00 00 00 00 00 	cs nopw 0x0(%rax,%rax,1)
   12d98:	66 2e 0f 1f 84 00 00 00 00 00 	cs nopw 0x0(%rax,%rax,1)
   12da2:	66 2e 0f 1f 84 00 00 00 00 00 	cs nopw 0x0(%rax,%rax,1)
   12dac:	66 2e 0f 1f 84 00 00 00 00 00 	cs nopw 0x0(%rax,%rax,1)
   12db6:	66 2e 0f 1f 84 00 00 00 00 00 	cs nopw 0x0(%rax,%rax,1)
   12dc0:	66 2e 0f 1f 84 00 00 00 00 00 	cs nopw 0x0(%rax,%rax,1)
   12dca:	66 2e 0f 1f 84 00 00 00 00 00 	cs nopw 0x0(%rax,%rax,1)
   12dd4:	66 2e 0f 1f 84 00 00 00 00 00 	cs nopw 0x0(%rax,%rax,1)
   12dde:	66 2e 0f 1f 84 00 00 00 00 00 	cs nopw 0x0(%rax,%rax,1)
   12de8:	66 2e 0f 1f 84 00 00 00 00 00 	cs nopw 0x0(%rax,%rax,1)
   12df2:	66 2e 0f 1f 84 00 00 00 00 00 	cs nopw 0x0(%rax,%rax,1)
   12dfc:	66 2e 0f 1f 84 00 00 00 00 00 	cs nopw 0x0(%rax,%rax,1)
   12e06:	66 2e 0f 1f 84 00 00 00 00 00 	cs nopw 0x0(%rax,%rax,1)
   12e10:	66 2e 0f 1f 84 00 00 00 00 00 	cs nopw 0x0(%rax,%rax,1)
   12e1a:	66 2e 0f 1f 84 00 00 00 00 00 	cs nopw 0x0(%rax,%rax,1)
   12e24:	66 2e 0f 1f 84 00 00 00 00 00 	cs nopw 0x0(%rax,%rax,1)
   12e2e:	66 2e 0f 1f 84 00 00 00 00 00 	cs nopw 0x0(%rax,%rax,1)
   12e38:	66 2e 0f 1f 84 00 00 00 00 00 	cs nopw 0x0(%rax,%rax,1)
   12e42:	66 2e 0f 1f 84 00 00 00 00 00 	cs nopw 0x0(%rax,%rax,1)
   12e4c:	66 2e 0f 1f 84 00 00 00 00 00 	cs nopw 0x0(%rax,%rax,1)
   12e56:	66 2e 0f 1f 84 00 00 00 00 00 	cs nopw 0x0(%rax,%rax,1)
   12e60:	66 2e 0f 1f 84 00 00 00 00 00 	cs nopw 0x0(%rax,%rax,1)
   12e6a:	66 2e 0f 1f 84 00 00 00 00 00 	cs nopw 0x0(%rax,%rax,1)
   12e74:	66 2e 0f 1f 84 00 00 00 00 00 	cs nopw 0x0(%rax,%rax,1)
   12e7e:	66 2e 0f 1f 84 00 00 00 00 00 	cs nopw 0x0(%rax,%rax,1)
   12e88:	66 2e 0f 1f 84 00 00 00 00 00 	cs nopw 0x0(%rax,%rax,1)
   12e92:	66 2e 0f 1f 84 00 00 00 00 00 	cs nopw 0x0(%rax,%rax,1)
   12e9c:	66 2e 0f 1f 84 00 00 00 00 00 	cs nopw 0x0(%rax,%rax,1)
   12ea6:	66 2e 0f 1f 84 00 00 00 00 00 	cs nopw 0x0(%rax,%rax,1)
   12eb0:	66 2e 0f 1f 84 00 00 00 00 00 	cs nopw 0x0(%rax,%rax,1)
   12eba:	66 2e 0f 1f 84 00 00 00 00 00 	cs nopw 0x0(%rax,%rax,1)
   12ec4:	66 2e 0f 1f 84 00 00 00 00 00 	cs nopw 0x0(%rax,%rax,1)
   12ece:	66 2e 0f 1f 84 00 00 00 00 00 	cs nopw 0x0(%rax,%rax,1)
   12ed8:	66 2e 0f 1f 84 00 00 00 00 00 	cs nopw 0x0(%rax,%rax,1)
   12ee2:	66 2e 0f 1f 84 00 00 00 00 00 	cs nopw 0x0(%rax,%rax,1)
   12eec:	66 2e 0f 1f 84 00 00 00 00 00 	cs nopw 0x0(%rax,%rax,1)
   12ef6:	66 2e 0f 1f 84 00 00 00 00 00 	cs nopw 0x0(%rax,%rax,1)
   12f00:	66 2e 0f 1f 84 00 00 00 00 00 	cs nopw 0x0(%rax,%rax,1)
   12f0a:	66 2e 0f 1f 84 00 00 00 00 00 	cs nopw 0x0(%rax,%rax,1)
   12f14:	66 2e 0f 1f 84 00 00 00 00 00 	cs nopw 0x0(%rax,%rax,1)
   12f1e:	66 2e 0f 1f 84 00 00 00 00 00 	cs nopw 0x0(%rax,%rax,1)
   12f28:	66 2e 0f 1f 84 00 00 00 00 00 	cs nopw 0x0(%rax,%rax,1)
   12f32:	66 2e 0f 1f 84 00 00 00 00 00 	cs nopw 0x0(%rax,%rax,1)
   12f3c:	66 2e 0f 1f 84 00 00 00 00 00 	cs nopw 0x0(%rax,%rax,1)
   12f46:	66 2e 0f 1f 84 00 00 00 00 00 	cs nopw 0x0(%rax,%rax,1)
   12f50:	66 2e 0f 1f 84 00 00 00 00 00 	cs nopw 0x0(%rax,%rax,1)
   12f5a:	66 2e 0f 1f 84 00 00 00 00 00 	cs nopw 0x0(%rax,%rax,1)
   12f64:	66 2e 0f 1f 84 00 00 00 00 00 	cs nopw 0x0(%rax,%rax,1)
   12f6e:	66 2e 0f 1f 84 00 00 00 00 00 	cs nopw 0x0(%rax,%rax,1)
   12f78:	66 2e 0f 1f 84 00 00 00 00 00 	cs nopw 0x0(%rax,%rax,1)
   12f82:	66 2e 0f 1f 84 00 00 00 00 00 	cs nopw 0x0(%rax,%rax,1)
   12f8c:	66 2e 0f 1f 84 00 00 00 00 00 	cs nopw 0x0(%rax,%rax,1)
   12f96:	66 2e 0f 1f 84 00 00 00 00 00 	cs nopw 0x0(%rax,%rax,1)
   12fa0:	66 2e 0f 1f 84 00 00 00 00 00 	cs nopw 0x0(%rax,%rax,1)
   12faa:	66 2e 0f 1f 84 00 00 00 00 00 	cs nopw 0x0(%rax,%rax,1)
   12fb4:	66 2e 0f 1f 84 00 00 00 00 00 	cs nopw 0x0(%rax,%rax,1)
   12fbe:	66 2e 0f 1f 84 00 00 00 00 00 	cs nopw 0x0(%rax,%rax,1)
   12fc8:	66 2e 0f 1f 84 00 00 00 00 00 	cs nopw 0x0(%rax,%rax,1)
   12fd2:	66 2e 0f 1f 84 00 00 00 00 00 	cs nopw 0x0(%rax,%rax,1)
   12fdc:	66 2e 0f 1f 84 00 00 00 00 00 	cs nopw 0x0(%rax,%rax,1)
   12fe6:	66 2e 0f 1f 84 00 00 00 00 00 	cs nopw 0x0(%rax,%rax,1)
   12ff0:	66 2e 0f 1f 84 00 00 00 00 00 	cs nopw 0x0(%rax,%rax,1)
   12ffa:	66 2e 0f 1f 84 00 00 00 00 00 	cs nopw 0x0(%rax,%rax,1)
   13004:	66 2e 0f 1f 84 00 00 00 00 00 	cs nopw 0x0(%rax,%rax,1)
   1300e:	66 2e 0f 1f 84 00 00 00 00 00 	cs nopw 0x0(%rax,%rax,1)
   13018:	66 2e 0f 1f 84 00 00 00 00 00 	cs nopw 0x0(%rax,%rax,1)
   13022:	66 2e 0f 1f 84 00 00 00 00 00 	cs nopw 0x0(%rax,%rax,1)
   1302c:	66 2e 0f 1f 84 00 00 00 00 00 	cs nopw 0x0(%rax,%rax,1)
   13036:	66 2e 0f 1f 84 00 00 00 00 00 	cs nopw 0x0(%rax,%rax,1)
   13040:	66 2e 0f 1f 84 00 00 00 00 00 	cs nopw 0x0(%rax,%rax,1)
   1304a:	66 2e 0f 1f 84 00 00 00 00 00 	cs nopw 0x0(%rax,%rax,1)
   13054:	66 2e 0f 1f 84 00 00 00 00 00 	cs nopw 0x0(%rax,%rax,1)
   1305e:	66 2e 0f 1f 84 00 00 00 00 00 	cs nopw 0x0(%rax,%rax,1)
   13068:	66 2e 0f 1f 84 00 00 00 00 00 	cs nopw 0x0(%rax,%rax,1)
   13072:	66 2e 0f 1f 84 00 00 00 00 00 	cs nopw 0x0(%rax,%rax,1)
   1307c:	66 2e 0f 1f 84 00 00 00 00 00 	cs nopw 0x0(%rax,%rax,1)
   13086:	66 2e 0f 1f 84 00 00 00 00 00 	cs nopw 0x0(%rax,%rax,1)
   13090:	66 2e 0f 1f 84 00 00 00 00 00 	cs nopw 0x0(%rax,%rax,1)
   1309a:	66 2e 0f 1f 84 00 00 00 00 00 	cs nopw 0x0(%rax,%rax,1)
   130a4:	66 2e 0f 1f 84 00 00 00 00 00 	cs nopw 0x0(%rax,%rax,1)
   130ae:	66 2e 0f 1f 84 00 00 00 00 00 	cs nopw 0x0(%rax,%rax,1)
   130b8:	66 2e 0f 1f 84 00 00 00 00 00 	cs nopw 0x0(%rax,%rax,1)
   130c2:	66 2e 0f 1f 84 00 00 00 00 00 	cs nopw 0x0(%rax,%rax,1)
   130cc:	66 2e 0f 1f 84 00 00 00 00 00 	cs nopw 0x0(%rax,%rax,1)
   130d6:	66 2e 0f 1f 84 00 00 00 00 00 	cs nopw 0x0(%rax,%rax,1)
   130e0:	66 2e 0f 1f 84 00 00 00 00 00 	cs nopw 0x0(%rax,%rax,1)
   130ea:	66 2e 0f 1f 84 00 00 00 00 00 	cs nopw 0x0(%rax,%rax,1)
   130f4:	66 2e 0f 1f 84 00 00 00 00 00 	cs nopw 0x0(%rax,%rax,1)
   130fe:	66 2e 0f 1f 84 00 00 00 00 00 	cs nopw 0x0(%rax,%rax,1)
   13108:	66 2e 0f 1f 84 00 00 00 00 00 	cs nopw 0x0(%rax,%rax,1)
   13112:	66 2e 0f 1f 84 00 00 00 00 00 	cs nopw 0x0(%rax,%rax,1)
   1311c:	66 2e 0f 1f 84 00 00 00 00 00 	cs nopw 0x0(%rax,%rax,1)
   13126:	66 2e 0f 1f 84 00 00 00 00 00 	cs nopw 0x0(%rax,%rax,1)
   13130:	66 2e 0f 1f 84 00 00 00 00 00 	cs nopw 0x0(%rax,%rax,1)
   1313a:	66 2e 0f 1f 84 00 00 00 00 00 	cs nopw 0x0(%rax,%rax,1)
   13144:	66 2e 0f 1f 84 00 00 00 00 00 	cs nopw 0x0(%rax,%rax,1)
   1314e:	66 2e 0f 1f 84 00 00 00 00 00 	cs nopw 0x0(%rax,%rax,1)
   13158:	66 2e 0f 1f 84 00 00 00 00 00 	cs nopw 0x0(%rax,%rax,1)
   13162:	66 2e 0f 1f 84 00 00 00 00 00 	cs nopw 0x0(%rax,%rax,1)
   1316c:	66 2e 0f 1f 84 00 00 00 00 00 	cs nopw 0x0(%rax,%rax,1)
   13176:	66 2e 0f 1f 84 00 00 00 00 00 	cs nopw 0x0(%rax,%rax,1)
   13180:	66 2e 0f 1f 84 00 00 00 00 00 	cs nopw 0x0(%rax,%rax,1)
   1318a:	66 2e 0f 1f 84 00 00 00 00 00 	cs nopw 0x0(%rax,%rax,1)
   13194:	66 2e 0f 1f 84 00 00 00 00 00 	cs nopw 0x0(%rax,%rax,1)
   1319e:	66 2e 0f 1f 84 00 00 00 00 00 	cs nopw 0x0(%rax,%rax,1)
   131a8:	66 2e 0f 1f 84 00 00 00 00 00 	cs nopw 0x0(%rax,%rax,1)
   131b2:	66 2e 0f 1f 84 00 00 00 00 00 	cs nopw 0x0(%rax,%rax,1)
   131bc:	66 2e 0f 1f 84 00 00 00 00 00 	cs nopw 0x0(%rax,%rax,1)
   131c6:	66 2e 0f 1f 84 00 00 00 00 00 	cs nopw 0x0(%rax,%rax,1)
   131d0:	66 2e 0f 1f 84 00 00 00 00 00 	cs nopw 0x0(%rax,%rax,1)
   131da:	66 2e 0f 1f 84 00 00 00 00 00 	cs nopw 0x0(%rax,%rax,1)
   131e4:	66 2e 0f 1f 84 00 00 00 00 00 	cs nopw 0x0(%rax,%rax,1)
   131ee:	66 2e 0f 1f 84 00 00 00 00 00 	cs nopw 0x0(%rax,%rax,1)
   131f8:	66 2e 0f 1f 84 00 00 00 00 00 	cs nopw 0x0(%rax,%rax,1)
   13202:	66 2e 0f 1f 84 00 00 00 00 00 	cs nopw 0x0(%rax,%rax,1)
   1320c:	66 2e 0f 1f 84 00 00 00 00 00 	cs nopw 0x0(%rax,%rax,1)
   13216:	66 2e 0f 1f 84 00 00 00 00 00 	cs nopw 0x0(%rax,%rax,1)
   13220:	66 2e 0f 1f 84 00 00 00 00 00 	cs nopw 0x0(%rax,%rax,1)
   1322a:	66 2e 0f 1f 84 00 00 00 00 00 	cs nopw 0x0(%rax,%rax,1)
   13234:	66 2e 0f 1f 84 00 00 00 00 00 	cs nopw 0x0(%rax,%rax,1)
   1323e:	66 2e 0f 1f 84 00 00 00 00 00 	cs nopw 0x0(%rax,%rax,1)
   13248:	66 2e 0f 1f 84 00 00 00 00 00 	cs nopw 0x0(%rax,%rax,1)
   13252:	66 2e 0f 1f 84 00 00 00 00 00 	cs nopw 0x0(%rax,%rax,1)
   1325c:	66 2e 0f 1f 84 00 00 00 00 00 	cs nopw 0x0(%rax,%rax,1)
   13266:	66 2e 0f 1f 84 00 00 00 00 00 	cs nopw 0x0(%rax,%rax,1)
   13270:	66 2e 0f 1f 84 00 00 00 00 00 	cs nopw 0x0(%rax,%rax,1)
   1327a:	66 2e 0f 1f 84 00 00 00 00 00 	cs nopw 0x0(%rax,%rax,1)
   13284:	66 2e 0f 1f 84 00 00 00 00 00 	cs nopw 0x0(%rax,%rax,1)
   1328e:	66 2e 0f 1f 84 00 00 00 00 00 	cs nopw 0x0(%rax,%rax,1)
   13298:	66 2e 0f 1f 84 00 00 00 00 00 	cs nopw 0x0(%rax,%rax,1)
   132a2:	66 2e 0f 1f 84 00 00 00 00 00 	cs nopw 0x0(%rax,%rax,1)
   132ac:	66 2e 0f 1f 84 00 00 00 00 00 	cs nopw 0x0(%rax,%rax,1)
   132b6:	66 2e 0f 1f 84 00 00 00 00 00 	cs nopw 0x0(%rax,%rax,1)
   132c0:	66 2e 0f 1f 84 00 00 00 00 00 	cs nopw 0x0(%rax,%rax,1)
   132ca:	66 2e 0f 1f 84 00 00 00 00 00 	cs nopw 0x0(%rax,%rax,1)
   132d4:	66 2e 0f 1f 84 00 00 00 00 00 	cs nopw 0x0(%rax,%rax,1)
   132de:	66 2e 0f 1f 84 00 00 00 00 00 	cs nopw 0x0(%rax,%rax,1)
   132e8:	66 2e 0f 1f 84 00 00 00 00 00 	cs nopw 0x0(%rax,%rax,1)
   132f2:	66 2e 0f 1f 84 00 00 00 00 00 	cs nopw 0x0(%rax,%rax,1)
   132fc:	66 2e 0f 1f 84 00 00 00 00 00 	cs nopw 0x0(%rax,%rax,1)
   13306:	66 2e 0f 1f 84 00 00 00 00 00 	cs nopw 0x0(%rax,%rax,1)
   13310:	66 2e 0f 1f 84 00 00 00 00 00 	cs nopw 0x0(%rax,%rax,1)
   1331a:	66 2e 0f 1f 84 00 00 00 00 00 	cs nopw 0x0(%rax,%rax,1)
   13324:	66 2e 0f 1f 84 00 00 00 00 00 	cs nopw 0x0(%rax,%rax,1)
   1332e:	66 2e 0f 1f 84 00 00 00 00 00 	cs nopw 0x0(%rax,%rax,1)
   13338:	66 2e 0f 1f 84 00 00 00 00 00 	cs nopw 0x0(%rax,%rax,1)
   13342:	66 2e 0f 1f 84 00 00 00 00 00 	cs nopw 0x0(%rax,%rax,1)
   1334c:	66 2e 0f 1f 84 00 00 00 00 00 	cs nopw 0x0(%rax,%rax,1)
   13356:	66 2e 0f 1f 84 00 00 00 00 00 	cs nopw 0x0(%rax,%rax,1)
   13360:	66 2e 0f 1f 84 00 00 00 00 00 	cs nopw 0x0(%rax,%rax,1)
   1336a:	66 2e 0f 1f 84 00 00 00 00 00 	cs nopw 0x0(%rax,%rax,1)
   13374:	66 2e 0f 1f 84 00 00 00 00 00 	cs nopw 0x0(%rax,%rax,1)
   1337e:	66 2e 0f 1f 84 00 00 00 00 00 	cs nopw 0x0(%rax,%rax,1)
   13388:	66 2e 0f 1f 84 00 00 00 00 00 	cs nopw 0x0(%rax,%rax,1)
   13392:	66 2e 0f 1f 84 00 00 00 00 00 	cs nopw 0x0(%rax,%rax,1)
   1339c:	66 2e 0f 1f 84 00 00 00 00 00 	cs nopw 0x0(%rax,%rax,1)
   133a6:	66 2e 0f 1f 84 00 00 00 00 00 	cs nopw 0x0(%rax,%rax,1)
   133b0:	66 2e 0f 1f 84 00 00 00 00 00 	cs nopw 0x0(%rax,%rax,1)
   133ba:	66 2e 0f 1f 84 00 00 00 00 00 	cs nopw 0x0(%rax,%rax,1)
   133c4:	66 2e 0f 1f 84 00 00 00 00 00 	cs nopw 0x0(%rax,%rax,1)
   133ce:	66 2e 0f 1f 84 00 00 00 00 00 	cs nopw 0x0(%rax,%rax,1)
   133d8:	66 2e 0f 1f 84 00 00 00 00 00 	cs nopw 0x0(%rax,%rax,1)
   133e2:	66 2e 0f 1f 84 00 00 00 00 00 	cs nopw 0x0(%rax,%rax,1)
   133ec:	66 2e 0f 1f 84 00 00 00 00 00 	cs nopw 0x0(%rax,%rax,1)
   133f6:	66 2e 0f 1f 84 00 00 00 00 00 	cs nopw 0x0(%rax,%rax,1)
   13400:	66 2e 0f 1f 84 00 00 00 00 00 	cs nopw 0x0(%rax,%rax,1)
   1340a:	66 2e 0f 1f 84 00 00 00 00 00 	cs nopw 0x0(%rax,%rax,1)
   13414:	66 2e 0f 1f 84 00 00 00 00 00 	cs nopw 0x0(%rax,%rax,1)
   1341e:	66 2e 0f 1f 84 00 00 00 00 00 	cs nopw 0x0(%rax,%rax,1)
   13428:	66 2e 0f 1f 84 00 00 00 00 00 	cs nopw 0x0(%rax,%rax,1)
   13432:	66 2e 0f 1f 84 00 00 00 00 00 	cs nopw 0x0(%rax,%rax,1)
   1343c:	66 2e 0f 1f 84 00 00 00 00 00 	cs nopw 0x0(%rax,%rax,1)
   13446:	66 2e 0f 1f 84 00 00 00 00 00 	cs nopw 0x0(%rax,%rax,1)
   13450:	66 2e 0f 1f 84 00 00 00 00 00 	cs nopw 0x0(%rax,%rax,1)
   1345a:	66 2e 0f 1f 84 00 00 00 00 00 	cs nopw 0x0(%rax,%rax,1)
   13464:	66 2e 0f 1f 84 00 00 00 00 00 	cs nopw 0x0(%rax,%rax,1)
   1346e:	66 2e 0f 1f 84 00 00 00 00 00 	cs nopw 0x0(%rax,%rax,1)
   13478:	66 2e 0f 1f 84 00 00 00 00 00 	cs nopw 0x0(%rax,%rax,1)
   13482:	66 2e 0f 1f 84 00 00 00 00 00 	cs nopw 0x0(%rax,%rax,1)
   1348c:	66 2e 0f 1f 84 00 00 00 00 00 	cs nopw 0x0(%rax,%rax,1)
   13496:	66 2e 0f 1f 84 00 00 00 00 00 	cs nopw 0x0(%rax,%rax,1)
   134a0:	66 2e 0f 1f 84 00 00 00 00 00 	cs nopw 0x0(%rax,%rax,1)
   134aa:	66 2e 0f 1f 84 00 00 00 00 00 	cs nopw 0x0(%rax,%rax,1)
   134b4:	66 2e 0f 1f 84 00 00 00 00 00 	cs nopw 0x0(%rax,%rax,1)
   134be:	66 2e 0f 1f 84 00 00 00 00 00 	cs nopw 0x0(%rax,%rax,1)
   134c8:	66 2e 0f 1f 84 00 00 00 00 00 	cs nopw 0x0(%rax,%rax,1)
   134d2:	66 2e 0f 1f 84 00 00 00 00 00 	cs nopw 0x0(%rax,%rax,1)
   134dc:	66 2e 0f 1f 84 00 00 00 00 00 	cs nopw 0x0(%rax,%rax,1)
   134e6:	66 2e 0f 1f 84 00 00 00 00 00 	cs nopw 0x0(%rax,%rax,1)
   134f0:	66 2e 0f 1f 84 00 00 00 00 00 	cs nopw 0x0(%rax,%rax,1)
   134fa:	66 2e 0f 1f 84 00 00 00 00 00 	cs nopw 0x0(%rax,%rax,1)
   13504:	66 2e 0f 1f 84 00 00 00 00 00 	cs nopw 0x0(%rax,%rax,1)
   1350e:	66 2e 0f 1f 84 00 00 00 00 00 	cs nopw 0x0(%rax,%rax,1)
   13518:	66 2e 0f 1f 84 00 00 00 00 00 	cs nopw 0x0(%rax,%rax,1)
   13522:	66 2e 0f 1f 84 00 00 00 00 00 	cs nopw 0x0(%rax,%rax,1)
   1352c:	66 2e 0f 1f 84 00 00 00 00 00 	cs nopw 0x0(%rax,%rax,1)
   13536:	66 2e 0f 1f 84 00 00 00 00 00 	cs nopw 0x0(%rax,%rax,1)
   13540:	66 2e 0f 1f 84 00 00 00 00 00 	cs nopw 0x0(%rax,%rax,1)
   1354a:	66 2e 0f 1f 84 00 00 00 00 00 	cs nopw 0x0(%rax,%rax,1)
   13554:	66 2e 0f 1f 84 00 00 00 00 00 	cs nopw 0x0(%rax,%rax,1)
   1355e:	66 2e 0f 1f 84 00 00 00 00 00 	cs nopw 0x0(%rax,%rax,1)
   13568:	66 2e 0f 1f 84 00 00 00 00 00 	cs nopw 0x0(%rax,%rax,1)
   13572:	66 2e 0f 1f 84 00 00 00 00 00 	cs nopw 0x0(%rax,%rax,1)
   1357c:	66 2e 0f 1f 84 00 00 00 00 00 	cs nopw 0x0(%rax,%rax,1)
   13586:	66 2e 0f 1f 84 00 00 00 00 00 	cs nopw 0x0(%rax,%rax,1)
   13590:	66 2e 0f 1f 84 00 00 00 00 00 	cs nopw 0x0(%rax,%rax,1)
   1359a:	66 2e 0f 1f 84 00 00 00 00 00 	cs nopw 0x0(%rax,%rax,1)
   135a4:	66 2e 0f 1f 84 00 00 00 00 00 	cs nopw 0x0(%rax,%rax,1)
   135ae:	66 2e 0f 1f 84 00 00 00 00 00 	cs nopw 0x0(%rax,%rax,1)
   135b8:	66 2e 0f 1f 84 00 00 00 00 00 	cs nopw 0x0(%rax,%rax,1)
   135c2:	66 2e 0f 1f 84 00 00 00 00 00 	cs nopw 0x0(%rax,%rax,1)
   135cc:	66 2e 0f 1f 84 00 00 00 00 00 	cs nopw 0x0(%rax,%rax,1)
   135d6:	66 2e 0f 1f 84 00 00 00 00 00 	cs nopw 0x0(%rax,%rax,1)
   135e0:	66 2e 0f 1f 84 00 00 00 00 00 	cs nopw 0x0(%rax,%rax,1)
   135ea:	66 2e 0f 1f 84 00 00 00 00 00 	cs nopw 0x0(%rax,%rax,1)
   135f4:	66 2e 0f 1f 84 00 00 00 00 00 	cs nopw 0x0(%rax,%rax,1)
   135fe:	66 2e 0f 1f 84 00 00 00 00 00 	cs nopw 0x0(%rax,%rax,1)
   13608:	66 2e 0f 1f 84 00 00 00 00 00 	cs nopw 0x0(%rax,%rax,1)
   13612:	66 2e 0f 1f 84 00 00 00 00 00 	cs nopw 0x0(%rax,%rax,1)
   1361c:	66 2e 0f 1f 84 00 00 00 00 00 	cs nopw 0x0(%rax,%rax,1)
   13626:	66 2e 0f 1f 84 00 00 00 00 00 	cs nopw 0x0(%rax,%rax,1)
   13630:	66 2e 0f 1f 84 00 00 00 00 00 	cs nopw 0x0(%rax,%rax,1)
   1363a:	66 2e 0f 1f 84 00 00 00 00 00 	cs nopw 0x0(%rax,%rax,1)
   13644:	66 2e 0f 1f 84 00 00 00 00 00 	cs nopw 0x0(%rax,%rax,1)
   1364e:	66 2e 0f 1f 84 00 00 00 00 00 	cs nopw 0x0(%rax,%rax,1)
   13658:	66 2e 0f 1f 84 00 00 00 00 00 	cs nopw 0x0(%rax,%rax,1)
   13662:	66 2e 0f 1f 84 00 00 00 00 00 	cs nopw 0x0(%rax,%rax,1)
   1366c:	66 2e 0f 1f 84 00 00 00 00 00 	cs nopw 0x0(%rax,%rax,1)
   13676:	66 2e 0f 1f 84 00 00 00 00 00 	cs nopw 0x0(%rax,%rax,1)
   13680:	66 2e 0f 1f 84 00 00 00 00 00 	cs nopw 0x0(%rax,%rax,1)
   1368a:	66 2e 0f 1f 84 00 00 00 00 00 	cs nopw 0x0(%rax,%rax,1)
   13694:	66 2e 0f 1f 84 00 00 00 00 00 	cs nopw 0x0(%rax,%rax,1)
   1369e:	66 2e 0f 1f 84 00 00 00 00 00 	cs nopw 0x0(%rax,%rax,1)
   136a8:	66 2e 0f 1f 84 00 00 00 00 00 	cs nopw 0x0(%rax,%rax,1)
   136b2:	66 2e 0f 1f 84 00 00 00 00 00 	cs nopw 0x0(%rax,%rax,1)
   136bc:	66 2e 0f 1f 84 00 00 00 00 00 	cs nopw 0x0(%rax,%rax,1)
   136c6:	66 2e 0f 1f 84 00 00 00 00 00 	cs nopw 0x0(%rax,%rax,1)
   136d0:	66 2e 0f 1f 84 00 00 00 00 00 	cs nopw 0x0(%rax,%rax,1)
   136da:	66 2e 0f 1f 84 00 00 00 00 00 	cs nopw 0x0(%rax,%rax,1)
   136e4:	66 2e 0f 1f 84 00 00 00 00 00 	cs nopw 0x0(%rax,%rax,1)
   136ee:	66 2e 0f 1f 84 00 00 00 00 00 	cs nopw 0x0(%rax,%rax,1)
   136f8:	66 2e 0f 1f 84 00 00 00 00 00 	cs nopw 0x0(%rax,%rax,1)
   13702:	66 2e 0f 1f 84 00 00 00 00 00 	cs nopw 0x0(%rax,%rax,1)
   1370c:	66 2e 0f 1f 84 00 00 00 00 00 	cs nopw 0x0(%rax,%rax,1)
   13716:	66 2e 0f 1f 84 00 00 00 00 00 	cs nopw 0x0(%rax,%rax,1)
   13720:	66 2e 0f 1f 84 00 00 00 00 00 	cs nopw 0x0(%rax,%rax,1)
   1372a:	66 2e 0f 1f 84 00 00 00 00 00 	cs nopw 0x0(%rax,%rax,1)
   13734:	66 2e 0f 1f 84 00 00 00 00 00 	cs nopw 0x0(%rax,%rax,1)
   1373e:	66 2e 0f 1f 84 00 00 00 00 00 	cs nopw 0x0(%rax,%rax,1)
   13748:	66 2e 0f 1f 84 00 00 00 00 00 	cs nopw 0x0(%rax,%rax,1)
   13752:	66 2e 0f 1f 84 00 00 00 00 00 	cs nopw 0x0(%rax,%rax,1)
   1375c:	66 2e 0f 1f 84 00 00 00 00 00 	cs nopw 0x0(%rax,%rax,1)
   13766:	66 2e 0f 1f 84 00 00 00 00 00 	cs nopw 0x0(%rax,%rax,1)
   13770:	66 2e 0f 1f 84 00 00 00 00 00 	cs nopw 0x0(%rax,%rax,1)
   1377a:	66 2e 0f 1f 84 00 00 00 00 00 	cs nopw 0x0(%rax,%rax,1)
   13784:	66 2e 0f 1f 84 00 00 00 00 00 	cs nopw 0x0(%rax,%rax,1)
   1378e:	66 2e 0f 1f 84 00 00 00 00 00 	cs nopw 0x0(%rax,%rax,1)
   13798:	66 2e 0f 1f 84 00 00 00 00 00 	cs nopw 0x0(%rax,%rax,1)
   137a2:	66 2e 0f 1f 84 00 00 00 00 00 	cs nopw 0x0(%rax,%rax,1)
   137ac:	66 2e 0f 1f 84 00 00 00 00 00 	cs nopw 0x0(%rax,%rax,1)
   137b6:	66 2e 0f 1f 84 00 00 00 00 00 	cs nopw 0x0(%rax,%rax,1)
   137c0:	66 2e 0f 1f 84 00 00 00 00 00 	cs nopw 0x0(%rax,%rax,1)
   137ca:	66 2e 0f 1f 84 00 00 00 00 00 	cs nopw 0x0(%rax,%rax,1)
   137d4:	66 2e 0f 1f 84 00 00 00 00 00 	cs nopw 0x0(%rax,%rax,1)
   137de:	66 2e 0f 1f 84 00 00 00 00 00 	cs nopw 0x0(%rax,%rax,1)
   137e8:	66 2e 0f 1f 84 00 00 00 00 00 	cs nopw 0x0(%rax,%rax,1)
   137f2:	66 2e 0f 1f 84 00 00 00 00 00 	cs nopw 0x0(%rax,%rax,1)
   137fc:	66 2e 0f 1f 84 00 00 00 00 00 	cs nopw 0x0(%rax,%rax,1)
   13806:	66 2e 0f 1f 84 00 00 00 00 00 	cs nopw 0x0(%rax,%rax,1)
   13810:	66 2e 0f 1f 84 00 00 00 00 00 	cs nopw 0x0(%rax,%rax,1)
   1381a:	66 2e 0f 1f 84 00 00 00 00 00 	cs nopw 0x0(%rax,%rax,1)
   13824:	66 2e 0f 1f 84 00 00 00 00 00 	cs nopw 0x0(%rax,%rax,1)
   1382e:	66 2e 0f 1f 84 00 00 00 00 00 	cs nopw 0x0(%rax,%rax,1)
   13838:	66 2e 0f 1f 84 00 00 00 00 00 	cs nopw 0x0(%rax,%rax,1)
   13842:	66 2e 0f 1f 84 00 00 00 00 00 	cs nopw 0x0(%rax,%rax,1)
   1384c:	66 2e 0f 1f 84 00 00 00 00 00 	cs nopw 0x0(%rax,%rax,1)
   13856:	66 2e 0f 1f 84 00 00 00 00 00 	cs nopw 0x0(%rax,%rax,1)
   13860:	66 2e 0f 1f 84 00 00 00 00 00 	cs nopw 0x0(%rax,%rax,1)
   1386a:	66 2e 0f 1f 84 00 00 00 00 00 	cs nopw 0x0(%rax,%rax,1)
   13874:	66 2e 0f 1f 84 00 00 00 00 00 	cs nopw 0x0(%rax,%rax,1)
   1387e:	66 2e 0f 1f 84 00 00 00 00 00 	cs nopw 0x0(%rax,%rax,1)
   13888:	66 2e 0f 1f 84 00 00 00 00 00 	cs nopw 0x0(%rax,%rax,1)
   13892:	66 2e 0f 1f 84 00 00 00 00 00 	cs nopw 0x0(%rax,%rax,1)
   1389c:	66 2e 0f 1f 84 00 00 00 00 00 	cs nopw 0x0(%rax,%rax,1)
   138a6:	66 2e 0f 1f 84 00 00 00 00 00 	cs nopw 0x0(%rax,%rax,1)
   138b0:	66 2e 0f 1f 84 00 00 00 00 00 	cs nopw 0x0(%rax,%rax,1)
   138ba:	66 2e 0f 1f 84 00 00 00 00 00 	cs nopw 0x0(%rax,%rax,1)
   138c4:	66 2e 0f 1f 84 00 00 00 00 00 	cs nopw 0x0(%rax,%rax,1)
   138ce:	66 2e 0f 1f 84 00 00 00 00 00 	cs nopw 0x0(%rax,%rax,1)
   138d8:	66 2e 0f 1f 84 00 00 00 00 00 	cs nopw 0x0(%rax,%rax,1)
   138e2:	66 2e 0f 1f 84 00 00 00 00 00 	cs nopw 0x0(%rax,%rax,1)
   138ec:	66 2e 0f 1f 84 00 00 00 00 00 	cs nopw 0x0(%rax,%rax,1)
   138f6:	66 2e 0f 1f 84 00 00 00 00 00 	cs nopw 0x0(%rax,%rax,1)
   13900:	66 2e 0f 1f 84 00 00 00 00 00 	cs nopw 0x0(%rax,%rax,1)
   1390a:	66 2e 0f 1f 84 00 00 00 00 00 	cs nopw 0x0(%rax,%rax,1)
   13914:	66 2e 0f 1f 84 00 00 00 00 00 	cs nopw 0x0(%rax,%rax,1)
   1391e:	66 2e 0f 1f 84 00 00 00 00 00 	cs nopw 0x0(%rax,%rax,1)
   13928:	66 2e 0f 1f 84 00 00 00 00 00 	cs nopw 0x0(%rax,%rax,1)
   13932:	66 2e 0f 1f 84 00 00 00 00 00 	cs nopw 0x0(%rax,%rax,1)
   1393c:	66 2e 0f 1f 84 00 00 00 00 00 	cs nopw 0x0(%rax,%rax,1)
   13946:	66 2e 0f 1f 84 00 00 00 00 00 	cs nopw 0x0(%rax,%rax,1)
   13950:	66 2e 0f 1f 84 00 00 00 00 00 	cs nopw 0x0(%rax,%rax,1)
   1395a:	66 2e 0f 1f 84 00 00 00 00 00 	cs nopw 0x0(%rax,%rax,1)
   13964:	66 2e 0f 1f 84 00 00 00 00 00 	cs nopw 0x0(%rax,%rax,1)
   1396e:	66 2e 0f 1f 84 00 00 00 00 00 	cs nopw 0x0(%rax,%rax,1)
   13978:	66 2e 0f 1f 84 00 00 00 00 00 	cs nopw 0x0(%rax,%rax,1)
   13982:	66 2e 0f 1f 84 00 00 00 00 00 	cs nopw 0x0(%rax,%rax,1)
   1398c:	66 2e 0f 1f 84 00 00 00 00 00 	cs nopw 0x0(%rax,%rax,1)
   13996:	66 2e 0f 1f 84 00 00 00 00 00 	cs nopw 0x0(%rax,%rax,1)
   139a0:	66 2e 0f 1f 84 00 00 00 00 00 	cs nopw 0x0(%rax,%rax,1)
   139aa:	66 2e 0f 1f 84 00 00 00 00 00 	cs nopw 0x0(%rax,%rax,1)
   139b4:	66 2e 0f 1f 84 00 00 00 00 00 	cs nopw 0x0(%rax,%rax,1)
   139be:	66 2e 0f 1f 84 00 00 00 00 00 	cs nopw 0x0(%rax,%rax,1)
   139c8:	66 2e 0f 1f 84 00 00 00 00 00 	cs nopw 0x0(%rax,%rax,1)
   139d2:	66 2e 0f 1f 84 00 00 00 00 00 	cs nopw 0x0(%rax,%rax,1)
   139dc:	66 2e 0f 1f 84 00 00 00 00 00 	cs nopw 0x0(%rax,%rax,1)
   139e6:	66 2e 0f 1f 84 00 00 00 00 00 	cs nopw 0x0(%rax,%rax,1)
   139f0:	66 2e 0f 1f 84 00 00 00 00 00 	cs nopw 0x0(%rax,%rax,1)
   139fa:	66 2e 0f 1f 84 00 00 00 00 00 	cs nopw 0x0(%rax,%rax,1)
   13a04:	66 2e 0f 1f 84 00 00 00 00 00 	cs nopw 0x0(%rax,%rax,1)
   13a0e:	66 2e 0f 1f 84 00 00 00 00 00 	cs nopw 0x0(%rax,%rax,1)
   13a18:	66 2e 0f 1f 84 00 00 00 00 00 	cs nopw 0x0(%rax,%rax,1)
   13a22:	66 2e 0f 1f 84 00 00 00 00 00 	cs nopw 0x0(%rax,%rax,1)
   13a2c:	66 2e 0f 1f 84 00 00 00 00 00 	cs nopw 0x0(%rax,%rax,1)
   13a36:	66 2e 0f 1f 84 00 00 00 00 00 	cs nopw 0x0(%rax,%rax,1)
   13a40:	66 2e 0f 1f 84 00 00 00 00 00 	cs nopw 0x0(%rax,%rax,1)
   13a4a:	66 2e 0f 1f 84 00 00 00 00 00 	cs nopw 0x0(%rax,%rax,1)
   13a54:	66 2e 0f 1f 84 00 00 00 00 00 	cs nopw 0x0(%rax,%rax,1)
   13a5e:	66 2e 0f 1f 84 00 00 00 00 00 	cs nopw 0x0(%rax,%rax,1)
   13a68:	66 2e 0f 1f 84 00 00 00 00 00 	cs nopw 0x0(%rax,%rax,1)
   13a72:	66 2e 0f 1f 84 00 00 00 00 00 	cs nopw 0x0(%rax,%rax,1)
   13a7c:	66 2e 0f 1f 84 00 00 00 00 00 	cs nopw 0x0(%rax,%rax,1)
   13a86:	66 2e 0f 1f 84 00 00 00 00 00 	cs nopw 0x0(%rax,%rax,1)
   13a90:	66 2e 0f 1f 84 00 00 00 00 00 	cs nopw 0x0(%rax,%rax,1)
   13a9a:	66 2e 0f 1f 84 00 00 00 00 00 	cs nopw 0x0(%rax,%rax,1)
   13aa4:	66 2e 0f 1f 84 00 00 00 00 00 	cs nopw 0x0(%rax,%rax,1)
   13aae:	66 2e 0f 1f 84 00 00 00 00 00 	cs nopw 0x0(%rax,%rax,1)
   13ab8:	66 2e 0f 1f 84 00 00 00 00 00 	cs nopw 0x0(%rax,%rax,1)
   13ac2:	66 2e 0f 1f 84 00 00 00 00 00 	cs nopw 0x0(%rax,%rax,1)
   13acc:	66 2e 0f 1f 84 00 00 00 00 00 	cs nopw 0x0(%rax,%rax,1)
   13ad6:	66 2e 0f 1f 84 00 00 00 00 00 	cs nopw 0x0(%rax,%rax,1)
   13ae0:	66 2e 0f 1f 84 00 00 00 00 00 	cs nopw 0x0(%rax,%rax,1)
   13aea:	66 2e 0f 1f 84 00 00 00 00 00 	cs nopw 0x0(%rax,%rax,1)
   13af4:	66 2e 0f 1f 84 00 00 00 00 00 	cs nopw 0x0(%rax,%rax,1)
   13afe:	66 2e 0f 1f 84 00 00 00 00 00 	cs nopw 0x0(%rax,%rax,1)
   13b08:	66 2e 0f 1f 84 00 00 00 00 00 	cs nopw 0x0(%rax,%rax,1)
   13b12:	66 2e 0f 1f 84 00 00 00 00 00 	cs nopw 0x0(%rax,%rax,1)
   13b1c:	66 2e 0f 1f 84 00 00 00 00 00 	cs nopw 0x0(%rax,%rax,1)
   13b26:	66 2e 0f 1f 84 00 00 00 00 00 	cs nopw 0x0(%rax,%rax,1)
   13b30:	66 2e 0f 1f 84 00 00 00 00 00 	cs nopw 0x0(%rax,%rax,1)
   13b3a:	66 2e 0f 1f 84 00 00 00 00 00 	cs nopw 0x0(%rax,%rax,1)
   13b44:	66 2e 0f 1f 84 00 00 00 00 00 	cs nopw 0x0(%rax,%rax,1)
   13b4e:	66 2e 0f 1f 84 00 00 00 00 00 	cs nopw 0x0(%rax,%rax,1)
   13b58:	66 2e 0f 1f 84 00 00 00 00 00 	cs nopw 0x0(%rax,%rax,1)
   13b62:	66 2e 0f 1f 84 00 00 00 00 00 	cs nopw 0x0(%rax,%rax,1)
   13b6c:	66 2e 0f 1f 84 00 00 00 00 00 	cs nopw 0x0(%rax,%rax,1)
   13b76:	66 2e 0f 1f 84 00 00 00 00 00 	cs nopw 0x0(%rax,%rax,1)
   13b80:	66 2e 0f 1f 84 00 00 00 00 00 	cs nopw 0x0(%rax,%rax,1)
   13b8a:	66 2e 0f 1f 84 00 00 00 00 00 	cs nopw 0x0(%rax,%rax,1)
   13b94:	66 2e 0f 1f 84 00 00 00 00 00 	cs nopw 0x0(%rax,%rax,1)
   13b9e:	66 2e 0f 1f 84 00 00 00 00 00 	cs nopw 0x0(%rax,%rax,1)
   13ba8:	66 2e 0f 1f 84 00 00 00 00 00 	cs nopw 0x0(%rax,%rax,1)
   13bb2:	66 2e 0f 1f 84 00 00 00 00 00 	cs nopw 0x0(%rax,%rax,1)
   13bbc:	66 2e 0f 1f 84 00 00 00 00 00 	cs nopw 0x0(%rax,%rax,1)
   13bc6:	66 2e 0f 1f 84 00 00 00 00 00 	cs nopw 0x0(%rax,%rax,1)
   13bd0:	66 2e 0f 1f 84 00 00 00 00 00 	cs nopw 0x0(%rax,%rax,1)
   13bda:	66 2e 0f 1f 84 00 00 00 00 00 	cs nopw 0x0(%rax,%rax,1)
   13be4:	66 2e 0f 1f 84 00 00 00 00 00 	cs nopw 0x0(%rax,%rax,1)
   13bee:	66 2e 0f 1f 84 00 00 00 00 00 	cs nopw 0x0(%rax,%rax,1)
   13bf8:	66 2e 0f 1f 84 00 00 00 00 00 	cs nopw 0x0(%rax,%rax,1)
   13c02:	66 2e 0f 1f 84 00 00 00 00 00 	cs nopw 0x0(%rax,%rax,1)
   13c0c:	66 2e 0f 1f 84 00 00 00 00 00 	cs nopw 0x0(%rax,%rax,1)
   13c16:	66 2e 0f 1f 84 00 00 00 00 00 	cs nopw 0x0(%rax,%rax,1)
   13c20:	66 2e 0f 1f 84 00 00 00 00 00 	cs nopw 0x0(%rax,%rax,1)
   13c2a:	66 2e 0f 1f 84 00 00 00 00 00 	cs nopw 0x0(%rax,%rax,1)
   13c34:	66 2e 0f 1f 84 00 00 00 00 00 	cs nopw 0x0(%rax,%rax,1)
   13c3e:	66 2e 0f 1f 84 00 00 00 00 00 	cs nopw 0x0(%rax,%rax,1)
   13c48:	66 2e 0f 1f 84 00 00 00 00 00 	cs nopw 0x0(%rax,%rax,1)
   13c52:	66 2e 0f 1f 84 00 00 00 00 00 	cs nopw 0x0(%rax,%rax,1)
   13c5c:	66 2e 0f 1f 84 00 00 00 00 00 	cs nopw 0x0(%rax,%rax,1)
   13c66:	66 2e 0f 1f 84 00 00 00 00 00 	cs nopw 0x0(%rax,%rax,1)
   13c70:	66 2e 0f 1f 84 00 00 00 00 00 	cs nopw 0x0(%rax,%rax,1)
   13c7a:	66 2e 0f 1f 84 00 00 00 00 00 	cs nopw 0x0(%rax,%rax,1)
   13c84:	66 2e 0f 1f 84 00 00 00 00 00 	cs nopw 0x0(%rax,%rax,1)
   13c8e:	66 2e 0f 1f 84 00 00 00 00 00 	cs nopw 0x0(%rax,%rax,1)
   13c98:	66 2e 0f 1f 84 00 00 00 00 00 	cs nopw 0x0(%rax,%rax,1)
   13ca2:	66 2e 0f 1f 84 00 00 00 00 00 	cs nopw 0x0(%rax,%rax,1)
   13cac:	66 2e 0f 1f 84 00 00 00 00 00 	cs nopw 0x0(%rax,%rax,1)
   13cb6:	66 2e 0f 1f 84 00 00 00 00 00 	cs nopw 0x0(%rax,%rax,1)
   13cc0:	66 2e 0f 1f 84 00 00 00 00 00 	cs nopw 0x0(%rax,%rax,1)
   13cca:	66 2e 0f 1f 84 00 00 00 00 00 	cs nopw 0x0(%rax,%rax,1)
   13cd4:	66 2e 0f 1f 84 00 00 00 00 00 	cs nopw 0x0(%rax,%rax,1)
   13cde:	66 2e 0f 1f 84 00 00 00 00 00 	cs nopw 0x0(%rax,%rax,1)
   13ce8:	66 2e 0f 1f 84 00 00 00 00 00 	cs nopw 0x0(%rax,%rax,1)
   13cf2:	66 2e 0f 1f 84 00 00 00 00 00 	cs nopw 0x0(%rax,%rax,1)
   13cfc:	66 2e 0f 1f 84 00 00 00 00 00 	cs nopw 0x0(%rax,%rax,1)
   13d06:	66 2e 0f 1f 84 00 00 00 00 00 	cs nopw 0x0(%rax,%rax,1)
   13d10:	66 2e 0f 1f 84 00 00 00 00 00 	cs nopw 0x0(%rax,%rax,1)
   13d1a:	66 2e 0f 1f 84 00 00 00 00 00 	cs nopw 0x0(%rax,%rax,1)
   13d24:	66 2e 0f 1f 84 00 00 00 00 00 	cs nopw 0x0(%rax,%rax,1)
   13d2e:	66 2e 0f 1f 84 00 00 00 00 00 	cs nopw 0x0(%rax,%rax,1)
   13d38:	66 2e 0f 1f 84 00 00 00 00 00 	cs nopw 0x0(%rax,%rax,1)
   13d42:	66 2e 0f 1f 84 00 00 00 00 00 	cs nopw 0x0(%rax,%rax,1)
   13d4c:	66 2e 0f 1f 84 00 00 00 00 00 	cs nopw 0x0(%rax,%rax,1)
   13d56:	66 2e 0f 1f 84 00 00 00 00 00 	cs nopw 0x0(%rax,%rax,1)
   13d60:	66 2e 0f 1f 84 00 00 00 00 00 	cs nopw 0x0(%rax,%rax,1)
   13d6a:	66 2e 0f 1f 84 00 00 00 00 00 	cs nopw 0x0(%rax,%rax,1)
   13d74:	66 2e 0f 1f 84 00 00 00 00 00 	cs nopw 0x0(%rax,%rax,1)
   13d7e:	66 2e 0f 1f 84 00 00 00 00 00 	cs nopw 0x0(%rax,%rax,1)
   13d88:	66 2e 0f 1f 84 00 00 00 00 00 	cs nopw 0x0(%rax,%rax,1)
   13d92:	66 2e 0f 1f 84 00 00 00 00 00 	cs nopw 0x0(%rax,%rax,1)
   13d9c:	66 2e 0f 1f 84 00 00 00 00 00 	cs nopw 0x0(%rax,%rax,1)
   13da6:	66 2e 0f 1f 84 00 00 00 00 00 	cs nopw 0x0(%rax,%rax,1)
   13db0:	66 2e 0f 1f 84 00 00 00 00 00 	cs nopw 0x0(%rax,%rax,1)
   13dba:	66 2e 0f 1f 84 00 00 00 00 00 	cs nopw 0x0(%rax,%rax,1)
   13dc4:	66 2e 0f 1f 84 00 00 00 00 00 	cs nopw 0x0(%rax,%rax,1)
   13dce:	66 2e 0f 1f 84 00 00 00 00 00 	cs nopw 0x0(%rax,%rax,1)
   13dd8:	66 2e 0f 1f 84 00 00 00 00 00 	cs nopw 0x0(%rax,%rax,1)
   13de2:	66 2e 0f 1f 84 00 00 00 00 00 	cs nopw 0x0(%rax,%rax,1)
   13dec:	66 2e 0f 1f 84 00 00 00 00 00 	cs nopw 0x0(%rax,%rax,1)
   13df6:	66 2e 0f 1f 84 00 00 00 00 00 	cs nopw 0x0(%rax,%rax,1)
   13e00:	66 2e 0f 1f 84 00 00 00 00 00 	cs nopw 0x0(%rax,%rax,1)
   13e0a:	66 2e 0f 1f 84 00 00 00 00 00 	cs nopw 0x0(%rax,%rax,1)
   13e14:	66 2e 0f 1f 84 00 00 00 00 00 	cs nopw 0x0(%rax,%rax,1)
   13e1e:	66 2e 0f 1f 84 00 00 00 00 00 	cs nopw 0x0(%rax,%rax,1)
   13e28:	66 2e 0f 1f 84 00 00 00 00 00 	cs nopw 0x0(%rax,%rax,1)
   13e32:	66 2e 0f 1f 84 00 00 00 00 00 	cs nopw 0x0(%rax,%rax,1)
   13e3c:	66 2e 0f 1f 84 00 00 00 00 00 	cs nopw 0x0(%rax,%rax,1)
   13e46:	66 2e 0f 1f 84 00 00 00 00 00 	cs nopw 0x0(%rax,%rax,1)
   13e50:	66 2e 0f 1f 84 00 00 00 00 00 	cs nopw 0x0(%rax,%rax,1)
   13e5a:	66 2e 0f 1f 84 00 00 00 00 00 	cs nopw 0x0(%rax,%rax,1)
   13e64:	66 2e 0f 1f 84 00 00 00 00 00 	cs nopw 0x0(%rax,%rax,1)
   13e6e:	66 2e 0f 1f 84 00 00 00 00 00 	cs nopw 0x0(%rax,%rax,1)
   13e78:	66 2e 0f 1f 84 00 00 00 00 00 	cs nopw 0x0(%rax,%rax,1)
   13e82:	66 2e 0f 1f 84 00 00 00 00 00 	cs nopw 0x0(%rax,%rax,1)
   13e8c:	66 2e 0f 1f 84 00 00 00 00 00 	cs nopw 0x0(%rax,%rax,1)
   13e96:	66 2e 0f 1f 84 00 00 00 00 00 	cs nopw 0x0(%rax,%rax,1)
   13ea0:	66 2e 0f 1f 84 00 00 00 00 00 	cs nopw 0x0(%rax,%rax,1)
   13eaa:	66 2e 0f 1f 84 00 00 00 00 00 	cs nopw 0x0(%rax,%rax,1)
   13eb4:	66 2e 0f 1f 84 00 00 00 00 00 	cs nopw 0x0(%rax,%rax,1)
   13ebe:	66 2e 0f 1f 84 00 00 00 00 00 	cs nopw 0x0(%rax,%rax,1)
   13ec8:	66 2e 0f 1f 84 00 00 00 00 00 	cs nopw 0x0(%rax,%rax,1)
   13ed2:	66 2e 0f 1f 84 00 00 00 00 00 	cs nopw 0x0(%rax,%rax,1)
   13edc:	66 2e 0f 1f 84 00 00 00 00 00 	cs nopw 0x0(%rax,%rax,1)
   13ee6:	66 2e 0f 1f 84 00 00 00 00 00 	cs nopw 0x0(%rax,%rax,1)
   13ef0:	66 2e 0f 1f 84 00 00 00 00 00 	cs nopw 0x0(%rax,%rax,1)
   13efa:	66 2e 0f 1f 84 00 00 00 00 00 	cs nopw 0x0(%rax,%rax,1)
   13f04:	66 2e 0f 1f 84 00 00 00 00 00 	cs nopw 0x0(%rax,%rax,1)
   13f0e:	66 2e 0f 1f 84 00 00 00 00 00 	cs nopw 0x0(%rax,%rax,1)
   13f18:	66 2e 0f 1f 84 00 00 00 00 00 	cs nopw 0x0(%rax,%rax,1)
   13f22:	66 2e 0f 1f 84 00 00 00 00 00 	cs nopw 0x0(%rax,%rax,1)
   13f2c:	66 2e 0f 1f 84 00 00 00 00 00 	cs nopw 0x0(%rax,%rax,1)
   13f36:	66 2e 0f 1f 84 00 00 00 00 00 	cs nopw 0x0(%rax,%rax,1)
   13f40:	66 2e 0f 1f 84 00 00 00 00 00 	cs nopw 0x0(%rax,%rax,1)
   13f4a:	66 2e 0f 1f 84 00 00 00 00 00 	cs nopw 0x0(%rax,%rax,1)
   13f54:	66 2e 0f 1f 84 00 00 00 00 00 	cs nopw 0x0(%rax,%rax,1)
   13f5e:	66 2e 0f 1f 84 00 00 00 00 00 	cs nopw 0x0(%rax,%rax,1)
   13f68:	66 2e 0f 1f 84 00 00 00 00 00 	cs nopw 0x0(%rax,%rax,1)
   13f72:	66 2e 0f 1f 84 00 00 00 00 00 	cs nopw 0x0(%rax,%rax,1)
   13f7c:	66 2e 0f 1f 84 00 00 00 00 00 	cs nopw 0x0(%rax,%rax,1)
   13f86:	66 2e 0f 1f 84 00 00 00 00 00 	cs nopw 0x0(%rax,%rax,1)
   13f90:	66 2e 0f 1f 84 00 00 00 00 00 	cs nopw 0x0(%rax,%rax,1)
   13f9a:	66 2e 0f 1f 84 00 00 00 00 00 	cs nopw 0x0(%rax,%rax,1)
   13fa4:	66 2e 0f 1f 84 00 00 00 00 00 	cs nopw 0x0(%rax,%rax,1)
   13fae:	66 2e 0f 1f 84 00 00 00 00 00 	cs nopw 0x0(%rax,%rax,1)
   13fb8:	66 2e 0f 1f 84 00 00 00 00 00 	cs nopw 0x0(%rax,%rax,1)
   13fc2:	66 2e 0f 1f 84 00 00 00 00 00 	cs nopw 0x0(%rax,%rax,1)
   13fcc:	66 2e 0f 1f 84 00 00 00 00 00 	cs nopw 0x0(%rax,%rax,1)
   13fd6:	66 2e 0f 1f 84 00 00 00 00 00 	cs nopw 0x0(%rax,%rax,1)
   13fe0:	66 2e 0f 1f 84 00 00 00 00 00 	cs nopw 0x0(%rax,%rax,1)
   13fea:	66 2e 0f 1f 84 00 00 00 00 00 	cs nopw 0x0(%rax,%rax,1)
   13ff4:	66 2e 0f 1f 84 00 00 00 00 00 	cs nopw 0x0(%rax,%rax,1)
   13ffe:	66 2e 0f 1f 84 00 00 00 00 00 	cs nopw 0x0(%rax,%rax,1)
   14008:	66 2e 0f 1f 84 00 00 00 00 00 	cs nopw 0x0(%rax,%rax,1)
   14012:	66 2e 0f 1f 84 00 00 00 00 00 	cs nopw 0x0(%rax,%rax,1)
   1401c:	66 2e 0f 1f 84 00 00 00 00 00 	cs nopw 0x0(%rax,%rax,1)
   14026:	66 2e 0f 1f 84 00 00 00 00 00 	cs nopw 0x0(%rax,%rax,1)
   14030:	66 2e 0f 1f 84 00 00 00 00 00 	cs nopw 0x0(%rax,%rax,1)
   1403a:	66 2e 0f 1f 84 00 00 00 00 00 	cs nopw 0x0(%rax,%rax,1)
   14044:	66 2e 0f 1f 84 00 00 00 00 00 	cs nopw 0x0(%rax,%rax,1)
   1404e:	66 2e 0f 1f 84 00 00 00 00 00 	cs nopw 0x0(%rax,%rax,1)
   14058:	66 2e 0f 1f 84 00 00 00 00 00 	cs nopw 0x0(%rax,%rax,1)
   14062:	66 2e 0f 1f 84 00 00 00 00 00 	cs nopw 0x0(%rax,%rax,1)
   1406c:	66 2e 0f 1f 84 00 00 00 00 00 	cs nopw 0x0(%rax,%rax,1)
   14076:	66 2e 0f 1f 84 00 00 00 00 00 	cs nopw 0x0(%rax,%rax,1)
   14080:	66 2e 0f 1f 84 00 00 00 00 00 	cs nopw 0x0(%rax,%rax,1)
   1408a:	66 2e 0f 1f 84 00 00 00 00 00 	cs nopw 0x0(%rax,%rax,1)
   14094:	66 2e 0f 1f 84 00 00 00 00 00 	cs nopw 0x0(%rax,%rax,1)
   1409e:	66 2e 0f 1f 84 00 00 00 00 00 	cs nopw 0x0(%rax,%rax,1)
   140a8:	66 2e 0f 1f 84 00 00 00 00 00 	cs nopw 0x0(%rax,%rax,1)
   140b2:	66 2e 0f 1f 84 00 00 00 00 00 	cs nopw 0x0(%rax,%rax,1)
   140bc:	66 2e 0f 1f 84 00 00 00 00 00 	cs nopw 0x0(%rax,%rax,1)
   140c6:	66 2e 0f 1f 84 00 00 00 00 00 	cs nopw 0x0(%rax,%rax,1)
   140d0:	66 2e 0f 1f 84 00 00 00 00 00 	cs nopw 0x0(%rax,%rax,1)
   140da:	66 2e 0f 1f 84 00 00 00 00 00 	cs nopw 0x0(%rax,%rax,1)
   140e4:	66 2e 0f 1f 84 00 00 00 00 00 	cs nopw 0x0(%rax,%rax,1)
   140ee:	66 2e 0f 1f 84 00 00 00 00 00 	cs nopw 0x0(%rax,%rax,1)
   140f8:	66 2e 0f 1f 84 00 00 00 00 00 	cs nopw 0x0(%rax,%rax,1)
   14102:	66 2e 0f 1f 84 00 00 00 00 00 	cs nopw 0x0(%rax,%rax,1)
   1410c:	66 2e 0f 1f 84 00 00 00 00 00 	cs nopw 0x0(%rax,%rax,1)
   14116:	66 2e 0f 1f 84 00 00 00 00 00 	cs nopw 0x0(%rax,%rax,1)
   14120:	66 2e 0f 1f 84 00 00 00 00 00 	cs nopw 0x0(%rax,%rax,1)
   1412a:	66 2e 0f 1f 84 00 00 00 00 00 	cs nopw 0x0(%rax,%rax,1)
   14134:	66 2e 0f 1f 84 00 00 00 00 00 	cs nopw 0x0(%rax,%rax,1)
   1413e:	66 2e 0f 1f 84 00 00 00 00 00 	cs nopw 0x0(%rax,%rax,1)
   14148:	66 2e 0f 1f 84 00 00 00 00 00 	cs nopw 0x0(%rax,%rax,1)
   14152:	66 2e 0f 1f 84 00 00 00 00 00 	cs nopw 0x0(%rax,%rax,1)
   1415c:	66 2e 0f 1f 84 00 00 00 00 00 	cs nopw 0x0(%rax,%rax,1)
   14166:	66 2e 0f 1f 84 00 00 00 00 00 	cs nopw 0x0(%rax,%rax,1)
   14170:	66 2e 0f 1f 84 00 00 00 00 00 	cs nopw 0x0(%rax,%rax,1)
   1417a:	66 2e 0f 1f 84 00 00 00 00 00 	cs nopw 0x0(%rax,%rax,1)
   14184:	66 2e 0f 1f 84 00 00 00 00 00 	cs nopw 0x0(%rax,%rax,1)
   1418e:	66 2e 0f 1f 84 00 00 00 00 00 	cs nopw 0x0(%rax,%rax,1)
   14198:	66 2e 0f 1f 84 00 00 00 00 00 	cs nopw 0x0(%rax,%rax,1)
   141a2:	66 2e 0f 1f 84 00 00 00 00 00 	cs nopw 0x0(%rax,%rax,1)
   141ac:	66 2e 0f 1f 84 00 00 00 00 00 	cs nopw 0x0(%rax,%rax,1)
   141b6:	66 2e 0f 1f 84 00 00 00 00 00 	cs nopw 0x0(%rax,%rax,1)
   141c0:	66 2e 0f 1f 84 00 00 00 00 00 	cs nopw 0x0(%rax,%rax,1)
   141ca:	66 2e 0f 1f 84 00 00 00 00 00 	cs nopw 0x0(%rax,%rax,1)
   141d4:	66 2e 0f 1f 84 00 00 00 00 00 	cs nopw 0x0(%rax,%rax,1)
   141de:	66 2e 0f 1f 84 00 00 00 00 00 	cs nopw 0x0(%rax,%rax,1)
   141e8:	66 2e 0f 1f 84 00 00 00 00 00 	cs nopw 0x0(%rax,%rax,1)
   141f2:	66 2e 0f 1f 84 00 00 00 00 00 	cs nopw 0x0(%rax,%rax,1)
   141fc:	66 2e 0f 1f 84 00 00 00 00 00 	cs nopw 0x0(%rax,%rax,1)
   14206:	66 2e 0f 1f 84 00 00 00 00 00 	cs nopw 0x0(%rax,%rax,1)
   14210:	66 2e 0f 1f 84 00 00 00 00 00 	cs nopw 0x0(%rax,%rax,1)
   1421a:	66 2e 0f 1f 84 00 00 00 00 00 	cs nopw 0x0(%rax,%rax,1)
   14224:	66 2e 0f 1f 84 00 00 00 00 00 	cs nopw 0x0(%rax,%rax,1)
   1422e:	66 2e 0f 1f 84 00 00 00 00 00 	cs nopw 0x0(%rax,%rax,1)
   14238:	66 2e 0f 1f 84 00 00 00 00 00 	cs nopw 0x0(%rax,%rax,1)
   14242:	66 2e 0f 1f 84 00 00 00 00 00 	cs nopw 0x0(%rax,%rax,1)
   1424c:	66 2e 0f 1f 84 00 00 00 00 00 	cs nopw 0x0(%rax,%rax,1)
   14256:	66 2e 0f 1f 84 00 00 00 00 00 	cs nopw 0x0(%rax,%rax,1)
   14260:	66 2e 0f 1f 84 00 00 00 00 00 	cs nopw 0x0(%rax,%rax,1)
   1426a:	66 2e 0f 1f 84 00 00 00 00 00 	cs nopw 0x0(%rax,%rax,1)
   14274:	66 2e 0f 1f 84 00 00 00 00 00 	cs nopw 0x0(%rax,%rax,1)
   1427e:	66 2e 0f 1f 84 00 00 00 00 00 	cs nopw 0x0(%rax,%rax,1)
   14288:	66 2e 0f 1f 84 00 00 00 00 00 	cs nopw 0x0(%rax,%rax,1)
   14292:	66 2e 0f 1f 84 00 00 00 00 00 	cs nopw 0x0(%rax,%rax,1)
   1429c:	66 2e 0f 1f 84 00 00 00 00 00 	cs nopw 0x0(%rax,%rax,1)
   142a6:	66 2e 0f 1f 84 00 00 00 00 00 	cs nopw 0x0(%rax,%rax,1)
   142b0:	66 2e 0f 1f 84 00 00 00 00 00 	cs nopw 0x0(%rax,%rax,1)
   142ba:	66 2e 0f 1f 84 00 00 00 00 00 	cs nopw 0x0(%rax,%rax,1)
   142c4:	66 2e 0f 1f 84 00 00 00 00 00 	cs nopw 0x0(%rax,%rax,1)
   142ce:	66 2e 0f 1f 84 00 00 00 00 00 	cs nopw 0x0(%rax,%rax,1)
   142d8:	66 2e 0f 1f 84 00 00 00 00 00 	cs nopw 0x0(%rax,%rax,1)
   142e2:	66 2e 0f 1f 84 00 00 00 00 00 	cs nopw 0x0(%rax,%rax,1)
   142ec:	66 2e 0f 1f 84 00 00 00 00 00 	cs nopw 0x0(%rax,%rax,1)
   142f6:	66 2e 0f 1f 84 00 00 00 00 00 	cs nopw 0x0(%rax,%rax,1)
   14300:	66 2e 0f 1f 84 00 00 00 00 00 	cs nopw 0x0(%rax,%rax,1)
   1430a:	66 2e 0f 1f 84 00 00 00 00 00 	cs nopw 0x0(%rax,%rax,1)
   14314:	66 2e 0f 1f 84 00 00 00 00 00 	cs nopw 0x0(%rax,%rax,1)
   1431e:	66 2e 0f 1f 84 00 00 00 00 00 	cs nopw 0x0(%rax,%rax,1)
   14328:	66 2e 0f 1f 84 00 00 00 00 00 	cs nopw 0x0(%rax,%rax,1)
   14332:	66 2e 0f 1f 84 00 00 00 00 00 	cs nopw 0x0(%rax,%rax,1)
   1433c:	66 2e 0f 1f 84 00 00 00 00 00 	cs nopw 0x0(%rax,%rax,1)
   14346:	66 2e 0f 1f 84 00 00 00 00 00 	cs nopw 0x0(%rax,%rax,1)
   14350:	66 2e 0f 1f 84 00 00 00 00 00 	cs nopw 0x0(%rax,%rax,1)
   1435a:	66 2e 0f 1f 84 00 00 00 00 00 	cs nopw 0x0(%rax,%rax,1)
   14364:	66 2e 0f 1f 84 00 00 00 00 00 	cs nopw 0x0(%rax,%rax,1)
   1436e:	66 2e 0f 1f 84 00 00 00 00 00 	cs nopw 0x0(%rax,%rax,1)
   14378:	66 2e 0f 1f 84 00 00 00 00 00 	cs nopw 0x0(%rax,%rax,1)
   14382:	66 2e 0f 1f 84 00 00 00 00 00 	cs nopw 0x0(%rax,%rax,1)
   1438c:	66 2e 0f 1f 84 00 00 00 00 00 	cs nopw 0x0(%rax,%rax,1)
   14396:	66 2e 0f 1f 84 00 00 00 00 00 	cs nopw 0x0(%rax,%rax,1)
   143a0:	66 2e 0f 1f 84 00 00 00 00 00 	cs nopw 0x0(%rax,%rax,1)
   143aa:	66 2e 0f 1f 84 00 00 00 00 00 	cs nopw 0x0(%rax,%rax,1)
   143b4:	66 2e 0f 1f 84 00 00 00 00 00 	cs nopw 0x0(%rax,%rax,1)
   143be:	66 2e 0f 1f 84 00 00 00 00 00 	cs nopw 0x0(%rax,%rax,1)
   143c8:	66 2e 0f 1f 84 00 00 00 00 00 	cs nopw 0x0(%rax,%rax,1)
   143d2:	66 2e 0f 1f 84 00 00 00 00 00 	cs nopw 0x0(%rax,%rax,1)
   143dc:	66 2e 0f 1f 84 00 00 00 00 00 	cs nopw 0x0(%rax,%rax,1)
   143e6:	66 2e 0f 1f 84 00 00 00 00 00 	cs nopw 0x0(%rax,%rax,1)
   143f0:	66 2e 0f 1f 84 00 00 00 00 00 	cs nopw 0x0(%rax,%rax,1)
   143fa:	66 2e 0f 1f 84 00 00 00 00 00 	cs nopw 0x0(%rax,%rax,1)
   14404:	66 2e 0f 1f 84 00 00 00 00 00 	cs nopw 0x0(%rax,%rax,1)
   1440e:	66 2e 0f 1f 84 00 00 00 00 00 	cs nopw 0x0(%rax,%rax,1)
   14418:	66 2e 0f 1f 84 00 00 00 00 00 	cs nopw 0x0(%rax,%rax,1)
   14422:	66 2e 0f 1f 84 00 00 00 00 00 	cs nopw 0x0(%rax,%rax,1)
   1442c:	66 2e 0f 1f 84 00 00 00 00 00 	cs nopw 0x0(%rax,%rax,1)
   14436:	66 2e 0f 1f 84 00 00 00 00 00 	cs nopw 0x0(%rax,%rax,1)
   14440:	66 2e 0f 1f 84 00 00 00 00 00 	cs nopw 0x0(%rax,%rax,1)
   1444a:	66 2e 0f 1f 84 00 00 00 00 00 	cs nopw 0x0(%rax,%rax,1)
   14454:	66 2e 0f 1f 84 00 00 00 00 00 	cs nopw 0x0(%rax,%rax,1)
   1445e:	66 2e 0f 1f 84 00 00 00 00 00 	cs nopw 0x0(%rax,%rax,1)
   14468:	66 2e 0f 1f 84 00 00 00 00 00 	cs nopw 0x0(%rax,%rax,1)
   14472:	66 2e 0f 1f 84 00 00 00 00 00 	cs nopw 0x0(%rax,%rax,1)
   1447c:	66 2e 0f 1f 84 00 00 00 00 00 	cs nopw 0x0(%rax,%rax,1)
   14486:	66 2e 0f 1f 84 00 00 00 00 00 	cs nopw 0x0(%rax,%rax,1)
   14490:	66 2e 0f 1f 84 00 00 00 00 00 	cs nopw 0x0(%rax,%rax,1)
   1449a:	66 2e 0f 1f 84 00 00 00 00 00 	cs nopw 0x0(%rax,%rax,1)
   144a4:	66 2e 0f 1f 84 00 00 00 00 00 	cs nopw 0x0(%rax,%rax,1)
   144ae:	66 2e 0f 1f 84 00 00 00 00 00 	cs nopw 0x0(%rax,%rax,1)
   144b8:	66 2e 0f 1f 84 00 00 00 00 00 	cs nopw 0x0(%rax,%rax,1)
   144c2:	66 2e 0f 1f 84 00 00 00 00 00 	cs nopw 0x0(%rax,%rax,1)
   144cc:	66 2e 0f 1f 84 00 00 00 00 00 	cs nopw 0x0(%rax,%rax,1)
   144d6:	66 2e 0f 1f 84 00 00 00 00 00 	cs nopw 0x0(%rax,%rax,1)
   144e0:	66 2e 0f 1f 84 00 00 00 00 00 	cs nopw 0x0(%rax,%rax,1)
   144ea:	66 2e 0f 1f 84 00 00 00 00 00 	cs nopw 0x0(%rax,%rax,1)
   144f4:	66 2e 0f 1f 84 00 00 00 00 00 	cs nopw 0x0(%rax,%rax,1)
   144fe:	66 2e 0f 1f 84 00 00 00 00 00 	cs nopw 0x0(%rax,%rax,1)
   14508:	66 2e 0f 1f 84 00 00 00 00 00 	cs nopw 0x0(%rax,%rax,1)
   14512:	66 2e 0f 1f 84 00 00 00 00 00 	cs nopw 0x0(%rax,%rax,1)
   1451c:	66 2e 0f 1f 84 00 00 00 00 00 	cs nopw 0x0(%rax,%rax,1)
   14526:	66 2e 0f 1f 84 00 00 00 00 00 	cs nopw 0x0(%rax,%rax,1)
   14530:	66 2e 0f 1f 84 00 00 00 00 00 	cs nopw 0x0(%rax,%rax,1)
   1453a:	66 2e 0f 1f 84 00 00 00 00 00 	cs nopw 0x0(%rax,%rax,1)
   14544:	66 2e 0f 1f 84 00 00 00 00 00 	cs nopw 0x0(%rax,%rax,1)
   1454e:	66 2e 0f 1f 84 00 00 00 00 00 	cs nopw 0x0(%rax,%rax,1)
   14558:	66 2e 0f 1f 84 00 00 00 00 00 	cs nopw 0x0(%rax,%rax,1)
   14562:	66 2e 0f 1f 84 00 00 00 00 00 	cs nopw 0x0(%rax,%rax,1)
   1456c:	66 2e 0f 1f 84 00 00 00 00 00 	cs nopw 0x0(%rax,%rax,1)
   14576:	66 2e 0f 1f 84 00 00 00 00 00 	cs nopw 0x0(%rax,%rax,1)
   14580:	66 2e 0f 1f 84 00 00 00 00 00 	cs nopw 0x0(%rax,%rax,1)
   1458a:	66 2e 0f 1f 84 00 00 00 00 00 	cs nopw 0x0(%rax,%rax,1)
   14594:	66 2e 0f 1f 84 00 00 00 00 00 	cs nopw 0x0(%rax,%rax,1)
   1459e:	66 2e 0f 1f 84 00 00 00 00 00 	cs nopw 0x0(%rax,%rax,1)
   145a8:	66 2e 0f 1f 84 00 00 00 00 00 	cs nopw 0x0(%rax,%rax,1)
   145b2:	66 2e 0f 1f 84 00 00 00 00 00 	cs nopw 0x0(%rax,%rax,1)
   145bc:	66 2e 0f 1f 84 00 00 00 00 00 	cs nopw 0x0(%rax,%rax,1)
   145c6:	66 2e 0f 1f 84 00 00 00 00 00 	cs nopw 0x0(%rax,%rax,1)
   145d0:	66 2e 0f 1f 84 00 00 00 00 00 	cs nopw 0x0(%rax,%rax,1)
   145da:	66 2e 0f 1f 84 00 00 00 00 00 	cs nopw 0x0(%rax,%rax,1)
   145e4:	66 2e 0f 1f 84 00 00 00 00 00 	cs nopw 0x0(%rax,%rax,1)
   145ee:	66 2e 0f 1f 84 00 00 00 00 00 	cs nopw 0x0(%rax,%rax,1)
   145f8:	66 2e 0f 1f 84 00 00 00 00 00 	cs nopw 0x0(%rax,%rax,1)
   14602:	66 2e 0f 1f 84 00 00 00 00 00 	cs nopw 0x0(%rax,%rax,1)
   1460c:	66 2e 0f 1f 84 00 00 00 00 00 	cs nopw 0x0(%rax,%rax,1)
   14616:	66 2e 0f 1f 84 00 00 00 00 00 	cs nopw 0x0(%rax,%rax,1)
   14620:	66 2e 0f 1f 84 00 00 00 00 00 	cs nopw 0x0(%rax,%rax,1)
   1462a:	66 2e 0f 1f 84 00 00 00 00 00 	cs nopw 0x0(%rax,%rax,1)
   14634:	66 2e 0f 1f 84 00 00 00 00 00 	cs nopw 0x0(%rax,%rax,1)
   1463e:	66 2e 0f 1f 84 00 00 00 00 00 	cs nopw 0x0(%rax,%rax,1)
   14648:	66 2e 0f 1f 84 00 00 00 00 00 	cs nopw 0x0(%rax,%rax,1)
   14652:	66 2e 0f 1f 84 00 00 00 00 00 	cs nopw 0x0(%rax,%rax,1)
   1465c:	66 2e 0f 1f 84 00 00 00 00 00 	cs nopw 0x0(%rax,%rax,1)
   14666:	66 2e 0f 1f 84 00 00 00 00 00 	cs nopw 0x0(%rax,%rax,1)
   14670:	66 2e 0f 1f 84 00 00 00 00 00 	cs nopw 0x0(%rax,%rax,1)
   1467a:	66 2e 0f 1f 84 00 00 00 00 00 	cs nopw 0x0(%rax,%rax,1)
   14684:	66 2e 0f 1f 84 00 00 00 00 00 	cs nopw 0x0(%rax,%rax,1)
   1468e:	66 2e 0f 1f 84 00 00 00 00 00 	cs nopw 0x0(%rax,%rax,1)
   14698:	66 2e 0f 1f 84 00 00 00 00 00 	cs nopw 0x0(%rax,%rax,1)
   146a2:	66 2e 0f 1f 84 00 00 00 00 00 	cs nopw 0x0(%rax,%rax,1)
   146ac:	66 2e 0f 1f 84 00 00 00 00 00 	cs nopw 0x0(%rax,%rax,1)
   146b6:	66 2e 0f 1f 84 00 00 00 00 00 	cs nopw 0x0(%rax,%rax,1)
   146c0:	66 2e 0f 1f 84 00 00 00 00 00 	cs nopw 0x0(%rax,%rax,1)
   146ca:	66 2e 0f 1f 84 00 00 00 00 00 	cs nopw 0x0(%rax,%rax,1)
   146d4:	66 2e 0f 1f 84 00 00 00 00 00 	cs nopw 0x0(%rax,%rax,1)
   146de:	66 2e 0f 1f 84 00 00 00 00 00 	cs nopw 0x0(%rax,%rax,1)
   146e8:	66 2e 0f 1f 84 00 00 00 00 00 	cs nopw 0x0(%rax,%rax,1)
   146f2:	66 2e 0f 1f 84 00 00 00 00 00 	cs nopw 0x0(%rax,%rax,1)
   146fc:	66 2e 0f 1f 84 00 00 00 00 00 	cs nopw 0x0(%rax,%rax,1)
   14706:	66 2e 0f 1f 84 00 00 00 00 00 	cs nopw 0x0(%rax,%rax,1)
   14710:	66 2e 0f 1f 84 00 00 00 00 00 	cs nopw 0x0(%rax,%rax,1)
   1471a:	66 2e 0f 1f 84 00 00 00 00 00 	cs nopw 0x0(%rax,%rax,1)
   14724:	66 2e 0f 1f 84 00 00 00 00 00 	cs nopw 0x0(%rax,%rax,1)
   1472e:	66 2e 0f 1f 84 00 00 00 00 00 	cs nopw 0x0(%rax,%rax,1)
   14738:	66 2e 0f 1f 84 00 00 00 00 00 	cs nopw 0x0(%rax,%rax,1)
   14742:	66 2e 0f 1f 84 00 00 00 00 00 	cs nopw 0x0(%rax,%rax,1)
   1474c:	66 2e 0f 1f 84 00 00 00 00 00 	cs nopw 0x0(%rax,%rax,1)
   14756:	66 2e 0f 1f 84 00 00 00 00 00 	cs nopw 0x0(%rax,%rax,1)
   14760:	66 2e 0f 1f 84 00 00 00 00 00 	cs nopw 0x0(%rax,%rax,1)
   1476a:	66 2e 0f 1f 84 00 00 00 00 00 	cs nopw 0x0(%rax,%rax,1)
   14774:	66 2e 0f 1f 84 00 00 00 00 00 	cs nopw 0x0(%rax,%rax,1)
   1477e:	66 2e 0f 1f 84 00 00 00 00 00 	cs nopw 0x0(%rax,%rax,1)
   14788:	66 2e 0f 1f 84 00 00 00 00 00 	cs nopw 0x0(%rax,%rax,1)
   14792:	66 2e 0f 1f 84 00 00 00 00 00 	cs nopw 0x0(%rax,%rax,1)
   1479c:	66 2e 0f 1f 84 00 00 00 00 00 	cs nopw 0x0(%rax,%rax,1)
   147a6:	66 2e 0f 1f 84 00 00 00 00 00 	cs nopw 0x0(%rax,%rax,1)
   147b0:	66 2e 0f 1f 84 00 00 00 00 00 	cs nopw 0x0(%rax,%rax,1)
   147ba:	66 2e 0f 1f 84 00 00 00 00 00 	cs nopw 0x0(%rax,%rax,1)
   147c4:	66 2e 0f 1f 84 00 00 00 00 00 	cs nopw 0x0(%rax,%rax,1)
   147ce:	66 2e 0f 1f 84 00 00 00 00 00 	cs nopw 0x0(%rax,%rax,1)
   147d8:	66 2e 0f 1f 84 00 00 00 00 00 	cs nopw 0x0(%rax,%rax,1)
   147e2:	66 2e 0f 1f 84 00 00 00 00 00 	cs nopw 0x0(%rax,%rax,1)
   147ec:	66 2e 0f 1f 84 00 00 00 00 00 	cs nopw 0x0(%rax,%rax,1)
   147f6:	66 2e 0f 1f 84 00 00 00 00 00 	cs nopw 0x0(%rax,%rax,1)
   14800:	66 2e 0f 1f 84 00 00 00 00 00 	cs nopw 0x0(%rax,%rax,1)
   1480a:	66 2e 0f 1f 84 00 00 00 00 00 	cs nopw 0x0(%rax,%rax,1)
   14814:	66 2e 0f 1f 84 00 00 00 00 00 	cs nopw 0x0(%rax,%rax,1)
   1481e:	66 2e 0f 1f 84 00 00 00 00 00 	cs nopw 0x0(%rax,%rax,1)
   14828:	66 2e 0f 1f 84 00 00 00 00 00 	cs nopw 0x0(%rax,%rax,1)
   14832:	66 2e 0f 1f 84 00 00 00 00 00 	cs nopw 0x0(%rax,%rax,1)
   1483c:	66 2e 0f 1f 84 00 00 00 00 00 	cs nopw 0x0(%rax,%rax,1)
   14846:	66 2e 0f 1f 84 00 00 00 00 00 	cs nopw 0x0(%rax,%rax,1)
   14850:	66 2e 0f 1f 84 00 00 00 00 00 	cs nopw 0x0(%rax,%rax,1)
   1485a:	66 2e 0f 1f 84 00 00 00 00 00 	cs nopw 0x0(%rax,%rax,1)
   14864:	66 2e 0f 1f 84 00 00 00 00 00 	cs nopw 0x0(%rax,%rax,1)
   1486e:	66 2e 0f 1f 84 00 00 00 00 00 	cs nopw 0x0(%rax,%rax,1)
   14878:	66 2e 0f 1f 84 00 00 00 00 00 	cs nopw 0x0(%rax,%rax,1)
   14882:	66 2e 0f 1f 84 00 00 00 00 00 	cs nopw 0x0(%rax,%rax,1)
   1488c:	66 2e 0f 1f 84 00 00 00 00 00 	cs nopw 0x0(%rax,%rax,1)
   14896:	66 2e 0f 1f 84 00 00 00 00 00 	cs nopw 0x0(%rax,%rax,1)
   148a0:	66 2e 0f 1f 84 00 00 00 00 00 	cs nopw 0x0(%rax,%rax,1)
   148aa:	66 2e 0f 1f 84 00 00 00 00 00 	cs nopw 0x0(%rax,%rax,1)
   148b4:	66 2e 0f 1f 84 00 00 00 00 00 	cs nopw 0x0(%rax,%rax,1)
   148be:	66 2e 0f 1f 84 00 00 00 00 00 	cs nopw 0x0(%rax,%rax,1)
   148c8:	66 2e 0f 1f 84 00 00 00 00 00 	cs nopw 0x0(%rax,%rax,1)
   148d2:	66 2e 0f 1f 84 00 00 00 00 00 	cs nopw 0x0(%rax,%rax,1)
   148dc:	66 2e 0f 1f 84 00 00 00 00 00 	cs nopw 0x0(%rax,%rax,1)
   148e6:	66 2e 0f 1f 84 00 00 00 00 00 	cs nopw 0x0(%rax,%rax,1)
   148f0:	66 2e 0f 1f 84 00 00 00 00 00 	cs nopw 0x0(%rax,%rax,1)
   148fa:	66 2e 0f 1f 84 00 00 00 00 00 	cs nopw 0x0(%rax,%rax,1)
   14904:	66 2e 0f 1f 84 00 00 00 00 00 	cs nopw 0x0(%rax,%rax,1)
   1490e:	66 2e 0f 1f 84 00 00 00 00 00 	cs nopw 0x0(%rax,%rax,1)
   14918:	66 2e 0f 1f 84 00 00 00 00 00 	cs nopw 0x0(%rax,%rax,1)
   14922:	66 2e 0f 1f 84 00 00 00 00 00 	cs nopw 0x0(%rax,%rax,1)
   1492c:	66 2e 0f 1f 84 00 00 00 00 00 	cs nopw 0x0(%rax,%rax,1)
   14936:	66 2e 0f 1f 84 00 00 00 00 00 	cs nopw 0x0(%rax,%rax,1)
   14940:	66 2e 0f 1f 84 00 00 00 00 00 	cs nopw 0x0(%rax,%rax,1)
   1494a:	66 2e 0f 1f 84 00 00 00 00 00 	cs nopw 0x0(%rax,%rax,1)
   14954:	66 2e 0f 1f 84 00 00 00 00 00 	cs nopw 0x0(%rax,%rax,1)
   1495e:	66 2e 0f 1f 84 00 00 00 00 00 	cs nopw 0x0(%rax,%rax,1)
   14968:	66 2e 0f 1f 84 00 00 00 00 00 	cs nopw 0x0(%rax,%rax,1)
   14972:	66 2e 0f 1f 84 00 00 00 00 00 	cs nopw 0x0(%rax,%rax,1)
   1497c:	66 2e 0f 1f 84 00 00 00 00 00 	cs nopw 0x0(%rax,%rax,1)
   14986:	66 2e 0f 1f 84 00 00 00 00 00 	cs nopw 0x0(%rax,%rax,1)
   14990:	66 2e 0f 1f 84 00 00 00 00 00 	cs nopw 0x0(%rax,%rax,1)
   1499a:	66 2e 0f 1f 84 00 00 00 00 00 	cs nopw 0x0(%rax,%rax,1)
   149a4:	66 2e 0f 1f 84 00 00 00 00 00 	cs nopw 0x0(%rax,%rax,1)
   149ae:	66 2e 0f 1f 84 00 00 00 00 00 	cs nopw 0x0(%rax,%rax,1)
   149b8:	66 2e 0f 1f 84 00 00 00 00 00 	cs nopw 0x0(%rax,%rax,1)
   149c2:	66 2e 0f 1f 84 00 00 00 00 00 	cs nopw 0x0(%rax,%rax,1)
   149cc:	66 2e 0f 1f 84 00 00 00 00 00 	cs nopw 0x0(%rax,%rax,1)
   149d6:	66 2e 0f 1f 84 00 00 00 00 00 	cs nopw 0x0(%rax,%rax,1)
   149e0:	66 2e 0f 1f 84 00 00 00 00 00 	cs nopw 0x0(%rax,%rax,1)
   149ea:	66 2e 0f 1f 84 00 00 00 00 00 	cs nopw 0x0(%rax,%rax,1)
   149f4:	66 2e 0f 1f 84 00 00 00 00 00 	cs nopw 0x0(%rax,%rax,1)
   149fe:	66 2e 0f 1f 84 00 00 00 00 00 	cs nopw 0x0(%rax,%rax,1)
   14a08:	66 2e 0f 1f 84 00 00 00 00 00 	cs nopw 0x0(%rax,%rax,1)
   14a12:	66 2e 0f 1f 84 00 00 00 00 00 	cs nopw 0x0(%rax,%rax,1)
   14a1c:	66 2e 0f 1f 84 00 00 00 00 00 	cs nopw 0x0(%rax,%rax,1)
   14a26:	66 2e 0f 1f 84 00 00 00 00 00 	cs nopw 0x0(%rax,%rax,1)
   14a30:	66 2e 0f 1f 84 00 00 00 00 00 	cs nopw 0x0(%rax,%rax,1)
   14a3a:	66 2e 0f 1f 84 00 00 00 00 00 	cs nopw 0x0(%rax,%rax,1)
   14a44:	66 2e 0f 1f 84 00 00 00 00 00 	cs nopw 0x0(%rax,%rax,1)
   14a4e:	66 2e 0f 1f 84 00 00 00 00 00 	cs nopw 0x0(%rax,%rax,1)
   14a58:	66 2e 0f 1f 84 00 00 00 00 00 	cs nopw 0x0(%rax,%rax,1)
   14a62:	66 2e 0f 1f 84 00 00 00 00 00 	cs nopw 0x0(%rax,%rax,1)
   14a6c:	66 2e 0f 1f 84 00 00 00 00 00 	cs nopw 0x0(%rax,%rax,1)
   14a76:	66 2e 0f 1f 84 00 00 00 00 00 	cs nopw 0x0(%rax,%rax,1)
   14a80:	66 2e 0f 1f 84 00 00 00 00 00 	cs nopw 0x0(%rax,%rax,1)
   14a8a:	66 2e 0f 1f 84 00 00 00 00 00 	cs nopw 0x0(%rax,%rax,1)
   14a94:	66 2e 0f 1f 84 00 00 00 00 00 	cs nopw 0x0(%rax,%rax,1)
   14a9e:	66 2e 0f 1f 84 00 00 00 00 00 	cs nopw 0x0(%rax,%rax,1)
   14aa8:	66 2e 0f 1f 84 00 00 00 00 00 	cs nopw 0x0(%rax,%rax,1)
   14ab2:	66 2e 0f 1f 84 00 00 00 00 00 	cs nopw 0x0(%rax,%rax,1)
   14abc:	66 2e 0f 1f 84 00 00 00 00 00 	cs nopw 0x0(%rax,%rax,1)
   14ac6:	66 2e 0f 1f 84 00 00 00 00 00 	cs nopw 0x0(%rax,%rax,1)
   14ad0:	66 2e 0f 1f 84 00 00 00 00 00 	cs nopw 0x0(%rax,%rax,1)
   14ada:	66 2e 0f 1f 84 00 00 00 00 00 	cs nopw 0x0(%rax,%rax,1)
   14ae4:	66 2e 0f 1f 84 00 00 00 00 00 	cs nopw 0x0(%rax,%rax,1)
   14aee:	66 2e 0f 1f 84 00 00 00 00 00 	cs nopw 0x0(%rax,%rax,1)
   14af8:	66 2e 0f 1f 84 00 00 00 00 00 	cs nopw 0x0(%rax,%rax,1)
   14b02:	66 2e 0f 1f 84 00 00 00 00 00 	cs nopw 0x0(%rax,%rax,1)
   14b0c:	66 2e 0f 1f 84 00 00 00 00 00 	cs nopw 0x0(%rax,%rax,1)
   14b16:	66 2e 0f 1f 84 00 00 00 00 00 	cs nopw 0x0(%rax,%rax,1)
   14b20:	66 2e 0f 1f 84 00 00 00 00 00 	cs nopw 0x0(%rax,%rax,1)
   14b2a:	66 2e 0f 1f 84 00 00 00 00 00 	cs nopw 0x0(%rax,%rax,1)
   14b34:	66 2e 0f 1f 84 00 00 00 00 00 	cs nopw 0x0(%rax,%rax,1)
   14b3e:	66 2e 0f 1f 84 00 00 00 00 00 	cs nopw 0x0(%rax,%rax,1)
   14b48:	66 2e 0f 1f 84 00 00 00 00 00 	cs nopw 0x0(%rax,%rax,1)
   14b52:	66 2e 0f 1f 84 00 00 00 00 00 	cs nopw 0x0(%rax,%rax,1)
   14b5c:	66 2e 0f 1f 84 00 00 00 00 00 	cs nopw 0x0(%rax,%rax,1)
   14b66:	66 2e 0f 1f 84 00 00 00 00 00 	cs nopw 0x0(%rax,%rax,1)
   14b70:	66 2e 0f 1f 84 00 00 00 00 00 	cs nopw 0x0(%rax,%rax,1)
   14b7a:	66 2e 0f 1f 84 00 00 00 00 00 	cs nopw 0x0(%rax,%rax,1)
   14b84:	66 2e 0f 1f 84 00 00 00 00 00 	cs nopw 0x0(%rax,%rax,1)
   14b8e:	66 2e 0f 1f 84 00 00 00 00 00 	cs nopw 0x0(%rax,%rax,1)
   14b98:	66 2e 0f 1f 84 00 00 00 00 00 	cs nopw 0x0(%rax,%rax,1)
   14ba2:	66 2e 0f 1f 84 00 00 00 00 00 	cs nopw 0x0(%rax,%rax,1)
   14bac:	66 2e 0f 1f 84 00 00 00 00 00 	cs nopw 0x0(%rax,%rax,1)
   14bb6:	66 2e 0f 1f 84 00 00 00 00 00 	cs nopw 0x0(%rax,%rax,1)
   14bc0:	66 2e 0f 1f 84 00 00 00 00 00 	cs nopw 0x0(%rax,%rax,1)
   14bca:	66 2e 0f 1f 84 00 00 00 00 00 	cs nopw 0x0(%rax,%rax,1)
   14bd4:	66 2e 0f 1f 84 00 00 00 00 00 	cs nopw 0x0(%rax,%rax,1)
   14bde:	66 2e 0f 1f 84 00 00 00 00 00 	cs nopw 0x0(%rax,%rax,1)
   14be8:	66 2e 0f 1f 84 00 00 00 00 00 	cs nopw 0x0(%rax,%rax,1)
   14bf2:	66 2e 0f 1f 84 00 00 00 00 00 	cs nopw 0x0(%rax,%rax,1)
   14bfc:	66 2e 0f 1f 84 00 00 00 00 00 	cs nopw 0x0(%rax,%rax,1)
   14c06:	66 2e 0f 1f 84 00 00 00 00 00 	cs nopw 0x0(%rax,%rax,1)
   14c10:	66 2e 0f 1f 84 00 00 00 00 00 	cs nopw 0x0(%rax,%rax,1)
   14c1a:	66 2e 0f 1f 84 00 00 00 00 00 	cs nopw 0x0(%rax,%rax,1)
   14c24:	66 2e 0f 1f 84 00 00 00 00 00 	cs nopw 0x0(%rax,%rax,1)
   14c2e:	66 2e 0f 1f 84 00 00 00 00 00 	cs nopw 0x0(%rax,%rax,1)
   14c38:	66 2e 0f 1f 84 00 00 00 00 00 	cs nopw 0x0(%rax,%rax,1)
   14c42:	66 2e 0f 1f 84 00 00 00 00 00 	cs nopw 0x0(%rax,%rax,1)
   14c4c:	66 2e 0f 1f 84 00 00 00 00 00 	cs nopw 0x0(%rax,%rax,1)
   14c56:	66 2e 0f 1f 84 00 00 00 00 00 	cs nopw 0x0(%rax,%rax,1)
   14c60:	66 2e 0f 1f 84 00 00 00 00 00 	cs nopw 0x0(%rax,%rax,1)
   14c6a:	66 2e 0f 1f 84 00 00 00 00 00 	cs nopw 0x0(%rax,%rax,1)
   14c74:	66 2e 0f 1f 84 00 00 00 00 00 	cs nopw 0x0(%rax,%rax,1)
   14c7e:	66 2e 0f 1f 84 00 00 00 00 00 	cs nopw 0x0(%rax,%rax,1)
   14c88:	66 2e 0f 1f 84 00 00 00 00 00 	cs nopw 0x0(%rax,%rax,1)
   14c92:	66 2e 0f 1f 84 00 00 00 00 00 	cs nopw 0x0(%rax,%rax,1)
   14c9c:	66 2e 0f 1f 84 00 00 00 00 00 	cs nopw 0x0(%rax,%rax,1)
   14ca6:	66 2e 0f 1f 84 00 00 00 00 00 	cs nopw 0x0(%rax,%rax,1)
   14cb0:	66 2e 0f 1f 84 00 00 00 00 00 	cs nopw 0x0(%rax,%rax,1)
   14cba:	66 2e 0f 1f 84 00 00 00 00 00 	cs nopw 0x0(%rax,%rax,1)
   14cc4:	66 2e 0f 1f 84 00 00 00 00 00 	cs nopw 0x0(%rax,%rax,1)
   14cce:	66 2e 0f 1f 84 00 00 00 00 00 	cs nopw 0x0(%rax,%rax,1)
   14cd8:	66 2e 0f 1f 84 00 00 00 00 00 	cs nopw 0x0(%rax,%rax,1)
   14ce2:	66 2e 0f 1f 84 00 00 00 00 00 	cs nopw 0x0(%rax,%rax,1)
   14cec:	66 2e 0f 1f 84 00 00 00 00 00 	cs nopw 0x0(%rax,%rax,1)
   14cf6:	66 2e 0f 1f 84 00 00 00 00 00 	cs nopw 0x0(%rax,%rax,1)
   14d00:	66 2e 0f 1f 84 00 00 00 00 00 	cs nopw 0x0(%rax,%rax,1)
   14d0a:	66 2e 0f 1f 84 00 00 00 00 00 	cs nopw 0x0(%rax,%rax,1)
   14d14:	66 2e 0f 1f 84 00 00 00 00 00 	cs nopw 0x0(%rax,%rax,1)
   14d1e:	66 2e 0f 1f 84 00 00 00 00 00 	cs nopw 0x0(%rax,%rax,1)
   14d28:	66 2e 0f 1f 84 00 00 00 00 00 	cs nopw 0x0(%rax,%rax,1)
   14d32:	66 2e 0f 1f 84 00 00 00 00 00 	cs nopw 0x0(%rax,%rax,1)
   14d3c:	66 2e 0f 1f 84 00 00 00 00 00 	cs nopw 0x0(%rax,%rax,1)
   14d46:	66 2e 0f 1f 84 00 00 00 00 00 	cs nopw 0x0(%rax,%rax,1)
   14d50:	66 2e 0f 1f 84 00 00 00 00 00 	cs nopw 0x0(%rax,%rax,1)
   14d5a:	66 2e 0f 1f 84 00 00 00 00 00 	cs nopw 0x0(%rax,%rax,1)
   14d64:	66 2e 0f 1f 84 00 00 00 00 00 	cs nopw 0x0(%rax,%rax,1)
   14d6e:	66 2e 0f 1f 84 00 00 00 00 00 	cs nopw 0x0(%rax,%rax,1)
   14d78:	66 2e 0f 1f 84 00 00 00 00 00 	cs nopw 0x0(%rax,%rax,1)
   14d82:	66 2e 0f 1f 84 00 00 00 00 00 	cs nopw 0x0(%rax,%rax,1)
   14d8c:	66 2e 0f 1f 84 00 00 00 00 00 	cs nopw 0x0(%rax,%rax,1)
   14d96:	66 2e 0f 1f 84 00 00 00 00 00 	cs nopw 0x0(%rax,%rax,1)
   14da0:	66 2e 0f 1f 84 00 00 00 00 00 	cs nopw 0x0(%rax,%rax,1)
   14daa:	66 2e 0f 1f 84 00 00 00 00 00 	cs nopw 0x0(%rax,%rax,1)
   14db4:	66 2e 0f 1f 84 00 00 00 00 00 	cs nopw 0x0(%rax,%rax,1)
   14dbe:	66 2e 0f 1f 84 00 00 00 00 00 	cs nopw 0x0(%rax,%rax,1)
   14dc8:	66 2e 0f 1f 84 00 00 00 00 00 	cs nopw 0x0(%rax,%rax,1)
   14dd2:	66 2e 0f 1f 84 00 00 00 00 00 	cs nopw 0x0(%rax,%rax,1)
   14ddc:	66 2e 0f 1f 84 00 00 00 00 00 	cs nopw 0x0(%rax,%rax,1)
   14de6:	66 2e 0f 1f 84 00 00 00 00 00 	cs nopw 0x0(%rax,%rax,1)
   14df0:	66 2e 0f 1f 84 00 00 00 00 00 	cs nopw 0x0(%rax,%rax,1)
   14dfa:	66 2e 0f 1f 84 00 00 00 00 00 	cs nopw 0x0(%rax,%rax,1)
   14e04:	66 2e 0f 1f 84 00 00 00 00 00 	cs nopw 0x0(%rax,%rax,1)
   14e0e:	66 2e 0f 1f 84 00 00 00 00 00 	cs nopw 0x0(%rax,%rax,1)
   14e18:	66 2e 0f 1f 84 00 00 00 00 00 	cs nopw 0x0(%rax,%rax,1)
   14e22:	66 2e 0f 1f 84 00 00 00 00 00 	cs nopw 0x0(%rax,%rax,1)
   14e2c:	66 2e 0f 1f 84 00 00 00 00 00 	cs nopw 0x0(%rax,%rax,1)
   14e36:	66 2e 0f 1f 84 00 00 00 00 00 	cs nopw 0x0(%rax,%rax,1)
   14e40:	66 2e 0f 1f 84 00 00 00 00 00 	cs nopw 0x0(%rax,%rax,1)
   14e4a:	66 2e 0f 1f 84 00 00 00 00 00 	cs nopw 0x0(%rax,%rax,1)
   14e54:	66 2e 0f 1f 84 00 00 00 00 00 	cs nopw 0x0(%rax,%rax,1)
   14e5e:	66 2e 0f 1f 84 00 00 00 00 00 	cs nopw 0x0(%rax,%rax,1)
   14e68:	66 2e 0f 1f 84 00 00 00 00 00 	cs nopw 0x0(%rax,%rax,1)
   14e72:	66 2e 0f 1f 84 00 00 00 00 00 	cs nopw 0x0(%rax,%rax,1)
   14e7c:	66 2e 0f 1f 84 00 00 00 00 00 	cs nopw 0x0(%rax,%rax,1)
   14e86:	66 2e 0f 1f 84 00 00 00 00 00 	cs nopw 0x0(%rax,%rax,1)
   14e90:	66 2e 0f 1f 84 00 00 00 00 00 	cs nopw 0x0(%rax,%rax,1)
   14e9a:	66 2e 0f 1f 84 00 00 00 00 00 	cs nopw 0x0(%rax,%rax,1)
   14ea4:	66 2e 0f 1f 84 00 00 00 00 00 	cs nopw 0x0(%rax,%rax,1)
   14eae:	66 2e 0f 1f 84 00 00 00 00 00 	cs nopw 0x0(%rax,%rax,1)
   14eb8:	66 2e 0f 1f 84 00 00 00 00 00 	cs nopw 0x0(%rax,%rax,1)
   14ec2:	66 2e 0f 1f 84 00 00 00 00 00 	cs nopw 0x0(%rax,%rax,1)
   14ecc:	66 2e 0f 1f 84 00 00 00 00 00 	cs nopw 0x0(%rax,%rax,1)
   14ed6:	66 2e 0f 1f 84 00 00 00 00 00 	cs nopw 0x0(%rax,%rax,1)
   14ee0:	66 2e 0f 1f 84 00 00 00 00 00 	cs nopw 0x0(%rax,%rax,1)
   14eea:	66 2e 0f 1f 84 00 00 00 00 00 	cs nopw 0x0(%rax,%rax,1)
   14ef4:	66 2e 0f 1f 84 00 00 00 00 00 	cs nopw 0x0(%rax,%rax,1)
   14efe:	66 2e 0f 1f 84 00 00 00 00 00 	cs nopw 0x0(%rax,%rax,1)
   14f08:	66 2e 0f 1f 84 00 00 00 00 00 	cs nopw 0x0(%rax,%rax,1)
   14f12:	66 2e 0f 1f 84 00 00 00 00 00 	cs nopw 0x0(%rax,%rax,1)
   14f1c:	66 2e 0f 1f 84 00 00 00 00 00 	cs nopw 0x0(%rax,%rax,1)
   14f26:	66 2e 0f 1f 84 00 00 00 00 00 	cs nopw 0x0(%rax,%rax,1)
   14f30:	66 2e 0f 1f 84 00 00 00 00 00 	cs nopw 0x0(%rax,%rax,1)
   14f3a:	66 2e 0f 1f 84 00 00 00 00 00 	cs nopw 0x0(%rax,%rax,1)
   14f44:	66 2e 0f 1f 84 00 00 00 00 00 	cs nopw 0x0(%rax,%rax,1)
   14f4e:	66 2e 0f 1f 84 00 00 00 00 00 	cs nopw 0x0(%rax,%rax,1)
   14f58:	66 2e 0f 1f 84 00 00 00 00 00 	cs nopw 0x0(%rax,%rax,1)
   14f62:	66 2e 0f 1f 84 00 00 00 00 00 	cs nopw 0x0(%rax,%rax,1)
   14f6c:	66 2e 0f 1f 84 00 00 00 00 00 	cs nopw 0x0(%rax,%rax,1)
   14f76:	66 2e 0f 1f 84 00 00 00 00 00 	cs nopw 0x0(%rax,%rax,1)
   14f80:	66 2e 0f 1f 84 00 00 00 00 00 	cs nopw 0x0(%rax,%rax,1)
   14f8a:	66 2e 0f 1f 84 00 00 00 00 00 	cs nopw 0x0(%rax,%rax,1)
   14f94:	66 2e 0f 1f 84 00 00 00 00 00 	cs nopw 0x0(%rax,%rax,1)
   14f9e:	66 2e 0f 1f 84 00 00 00 00 00 	cs nopw 0x0(%rax,%rax,1)
   14fa8:	66 2e 0f 1f 84 00 00 00 00 00 	cs nopw 0x0(%rax,%rax,1)
   14fb2:	66 2e 0f 1f 84 00 00 00 00 00 	cs nopw 0x0(%rax,%rax,1)
   14fbc:	66 2e 0f 1f 84 00 00 00 00 00 	cs nopw 0x0(%rax,%rax,1)
   14fc6:	66 2e 0f 1f 84 00 00 00 00 00 	cs nopw 0x0(%rax,%rax,1)
   14fd0:	66 2e 0f 1f 84 00 00 00 00 00 	cs nopw 0x0(%rax,%rax,1)
   14fda:	66 2e 0f 1f 84 00 00 00 00 00 	cs nopw 0x0(%rax,%rax,1)
   14fe4:	66 2e 0f 1f 84 00 00 00 00 00 	cs nopw 0x0(%rax,%rax,1)
   14fee:	66 2e 0f 1f 84 00 00 00 00 00 	cs nopw 0x0(%rax,%rax,1)
   14ff8:	66 2e 0f 1f 84 00 00 00 00 00 	cs nopw 0x0(%rax,%rax,1)
   15002:	66 2e 0f 1f 84 00 00 00 00 00 	cs nopw 0x0(%rax,%rax,1)
   1500c:	66 2e 0f 1f 84 00 00 00 00 00 	cs nopw 0x0(%rax,%rax,1)
   15016:	66 2e 0f 1f 84 00 00 00 00 00 	cs nopw 0x0(%rax,%rax,1)
   15020:	66 2e 0f 1f 84 00 00 00 00 00 	cs nopw 0x0(%rax,%rax,1)
   1502a:	66 2e 0f 1f 84 00 00 00 00 00 	cs nopw 0x0(%rax,%rax,1)
   15034:	66 2e 0f 1f 84 00 00 00 00 00 	cs nopw 0x0(%rax,%rax,1)
   1503e:	66 2e 0f 1f 84 00 00 00 00 00 	cs nopw 0x0(%rax,%rax,1)
   15048:	66 2e 0f 1f 84 00 00 00 00 00 	cs nopw 0x0(%rax,%rax,1)
   15052:	66 2e 0f 1f 84 00 00 00 00 00 	cs nopw 0x0(%rax,%rax,1)
   1505c:	66 2e 0f 1f 84 00 00 00 00 00 	cs nopw 0x0(%rax,%rax,1)
   15066:	66 2e 0f 1f 84 00 00 00 00 00 	cs nopw 0x0(%rax,%rax,1)
   15070:	66 2e 0f 1f 84 00 00 00 00 00 	cs nopw 0x0(%rax,%rax,1)
   1507a:	66 2e 0f 1f 84 00 00 00 00 00 	cs nopw 0x0(%rax,%rax,1)
   15084:	66 2e 0f 1f 84 00 00 00 00 00 	cs nopw 0x0(%rax,%rax,1)
   1508e:	66 2e 0f 1f 84 00 00 00 00 00 	cs nopw 0x0(%rax,%rax,1)
   15098:	66 2e 0f 1f 84 00 00 00 00 00 	cs nopw 0x0(%rax,%rax,1)
   150a2:	66 2e 0f 1f 84 00 00 00 00 00 	cs nopw 0x0(%rax,%rax,1)
   150ac:	66 2e 0f 1f 84 00 00 00 00 00 	cs nopw 0x0(%rax,%rax,1)
   150b6:	66 2e 0f 1f 84 00 00 00 00 00 	cs nopw 0x0(%rax,%rax,1)
   150c0:	66 2e 0f 1f 84 00 00 00 00 00 	cs nopw 0x0(%rax,%rax,1)
   150ca:	66 2e 0f 1f 84 00 00 00 00 00 	cs nopw 0x0(%rax,%rax,1)
   150d4:	66 2e 0f 1f 84 00 00 00 00 00 	cs nopw 0x0(%rax,%rax,1)
   150de:	66 2e 0f 1f 84 00 00 00 00 00 	cs nopw 0x0(%rax,%rax,1)
   150e8:	66 2e 0f 1f 84 00 00 00 00 00 	cs nopw 0x0(%rax,%rax,1)
   150f2:	66 2e 0f 1f 84 00 00 00 00 00 	cs nopw 0x0(%rax,%rax,1)
   150fc:	66 2e 0f 1f 84 00 00 00 00 00 	cs nopw 0x0(%rax,%rax,1)
   15106:	66 2e 0f 1f 84 00 00 00 00 00 	cs nopw 0x0(%rax,%rax,1)
   15110:	66 2e 0f 1f 84 00 00 00 00 00 	cs nopw 0x0(%rax,%rax,1)
   1511a:	66 2e 0f 1f 84 00 00 00 00 00 	cs nopw 0x0(%rax,%rax,1)
   15124:	66 2e 0f 1f 84 00 00 00 00 00 	cs nopw 0x0(%rax,%rax,1)
   1512e:	66 2e 0f 1f 84 00 00 00 00 00 	cs nopw 0x0(%rax,%rax,1)
   15138:	66 2e 0f 1f 84 00 00 00 00 00 	cs nopw 0x0(%rax,%rax,1)
   15142:	66 2e 0f 1f 84 00 00 00 00 00 	cs nopw 0x0(%rax,%rax,1)
   1514c:	66 2e 0f 1f 84 00 00 00 00 00 	cs nopw 0x0(%rax,%rax,1)
   15156:	66 2e 0f 1f 84 00 00 00 00 00 	cs nopw 0x0(%rax,%rax,1)
   15160:	66 2e 0f 1f 84 00 00 00 00 00 	cs nopw 0x0(%rax,%rax,1)
   1516a:	66 2e 0f 1f 84 00 00 00 00 00 	cs nopw 0x0(%rax,%rax,1)
   15174:	66 2e 0f 1f 84 00 00 00 00 00 	cs nopw 0x0(%rax,%rax,1)
   1517e:	66 2e 0f 1f 84 00 00 00 00 00 	cs nopw 0x0(%rax,%rax,1)
   15188:	66 2e 0f 1f 84 00 00 00 00 00 	cs nopw 0x0(%rax,%rax,1)
   15192:	66 2e 0f 1f 84 00 00 00 00 00 	cs nopw 0x0(%rax,%rax,1)
   1519c:	66 2e 0f 1f 84 00 00 00 00 00 	cs nopw 0x0(%rax,%rax,1)
   151a6:	66 2e 0f 1f 84 00 00 00 00 00 	cs nopw 0x0(%rax,%rax,1)
   151b0:	66 2e 0f 1f 84 00 00 00 00 00 	cs nopw 0x0(%rax,%rax,1)
   151ba:	66 2e 0f 1f 84 00 00 00 00 00 	cs nopw 0x0(%rax,%rax,1)
   151c4:	66 2e 0f 1f 84 00 00 00 00 00 	cs nopw 0x0(%rax,%rax,1)
   151ce:	66 2e 0f 1f 84 00 00 00 00 00 	cs nopw 0x0(%rax,%rax,1)
   151d8:	66 2e 0f 1f 84 00 00 00 00 00 	cs nopw 0x0(%rax,%rax,1)
   151e2:	66 2e 0f 1f 84 00 00 00 00 00 	cs nopw 0x0(%rax,%rax,1)
   151ec:	66 2e 0f 1f 84 00 00 00 00 00 	cs nopw 0x0(%rax,%rax,1)
   151f6:	66 2e 0f 1f 84 00 00 00 00 00 	cs nopw 0x0(%rax,%rax,1)
   15200:	66 2e 0f 1f 84 00 00 00 00 00 	cs nopw 0x0(%rax,%rax,1)
   1520a:	66 2e 0f 1f 84 00 00 00 00 00 	cs nopw 0x0(%rax,%rax,1)
   15214:	66 2e 0f 1f 84 00 00 00 00 00 	cs nopw 0x0(%rax,%rax,1)
   1521e:	66 2e 0f 1f 84 00 00 00 00 00 	cs nopw 0x0(%rax,%rax,1)
   15228:	66 2e 0f 1f 84 00 00 00 00 00 	cs nopw 0x0(%rax,%rax,1)
   15232:	66 2e 0f 1f 84 00 00 00 00 00 	cs nopw 0x0(%rax,%rax,1)
   1523c:	66 2e 0f 1f 84 00 00 00 00 00 	cs nopw 0x0(%rax,%rax,1)
   15246:	66 2e 0f 1f 84 00 00 00 00 00 	cs nopw 0x0(%rax,%rax,1)
   15250:	66 2e 0f 1f 84 00 00 00 00 00 	cs nopw 0x0(%rax,%rax,1)
   1525a:	66 2e 0f 1f 84 00 00 00 00 00 	cs nopw 0x0(%rax,%rax,1)
   15264:	66 2e 0f 1f 84 00 00 00 00 00 	cs nopw 0x0(%rax,%rax,1)
   1526e:	66 2e 0f 1f 84 00 00 00 00 00 	cs nopw 0x0(%rax,%rax,1)
   15278:	66 2e 0f 1f 84 00 00 00 00 00 	cs nopw 0x0(%rax,%rax,1)
   15282:	66 2e 0f 1f 84 00 00 00 00 00 	cs nopw 0x0(%rax,%rax,1)
   1528c:	66 2e 0f 1f 84 00 00 00 00 00 	cs nopw 0x0(%rax,%rax,1)
   15296:	66 2e 0f 1f 84 00 00 00 00 00 	cs nopw 0x0(%rax,%rax,1)
   152a0:	66 2e 0f 1f 84 00 00 00 00 00 	cs nopw 0x0(%rax,%rax,1)
   152aa:	66 2e 0f 1f 84 00 00 00 00 00 	cs nopw 0x0(%rax,%rax,1)
   152b4:	66 2e 0f 1f 84 00 00 00 00 00 	cs nopw 0x0(%rax,%rax,1)
   152be:	66 2e 0f 1f 84 00 00 00 00 00 	cs nopw 0x0(%rax,%rax,1)
   152c8:	66 2e 0f 1f 84 00 00 00 00 00 	cs nopw 0x0(%rax,%rax,1)
   152d2:	66 2e 0f 1f 84 00 00 00 00 00 	cs nopw 0x0(%rax,%rax,1)
   152dc:	66 2e 0f 1f 84 00 00 00 00 00 	cs nopw 0x0(%rax,%rax,1)
   152e6:	66 2e 0f 1f 84 00 00 00 00 00 	cs nopw 0x0(%rax,%rax,1)
   152f0:	66 2e 0f 1f 84 00 00 00 00 00 	cs nopw 0x0(%rax,%rax,1)
   152fa:	66 2e 0f 1f 84 00 00 00 00 00 	cs nopw 0x0(%rax,%rax,1)
   15304:	66 2e 0f 1f 84 00 00 00 00 00 	cs nopw 0x0(%rax,%rax,1)
   1530e:	66 2e 0f 1f 84 00 00 00 00 00 	cs nopw 0x0(%rax,%rax,1)
   15318:	66 2e 0f 1f 84 00 00 00 00 00 	cs nopw 0x0(%rax,%rax,1)
   15322:	66 2e 0f 1f 84 00 00 00 00 00 	cs nopw 0x0(%rax,%rax,1)
   1532c:	66 2e 0f 1f 84 00 00 00 00 00 	cs nopw 0x0(%rax,%rax,1)
   15336:	66 2e 0f 1f 84 00 00 00 00 00 	cs nopw 0x0(%rax,%rax,1)
   15340:	66 2e 0f 1f 84 00 00 00 00 00 	cs nopw 0x0(%rax,%rax,1)
   1534a:	66 2e 0f 1f 84 00 00 00 00 00 	cs nopw 0x0(%rax,%rax,1)
   15354:	66 2e 0f 1f 84 00 00 00 00 00 	cs nopw 0x0(%rax,%rax,1)
   1535e:	66 2e 0f 1f 84 00 00 00 00 00 	cs nopw 0x0(%rax,%rax,1)
   15368:	66 2e 0f 1f 84 00 00 00 00 00 	cs nopw 0x0(%rax,%rax,1)
   15372:	66 2e 0f 1f 84 00 00 00 00 00 	cs nopw 0x0(%rax,%rax,1)
   1537c:	66 2e 0f 1f 84 00 00 00 00 00 	cs nopw 0x0(%rax,%rax,1)
   15386:	66 2e 0f 1f 84 00 00 00 00 00 	cs nopw 0x0(%rax,%rax,1)
   15390:	66 2e 0f 1f 84 00 00 00 00 00 	cs nopw 0x0(%rax,%rax,1)
   1539a:	66 2e 0f 1f 84 00 00 00 00 00 	cs nopw 0x0(%rax,%rax,1)
   153a4:	66 2e 0f 1f 84 00 00 00 00 00 	cs nopw 0x0(%rax,%rax,1)
   153ae:	66 2e 0f 1f 84 00 00 00 00 00 	cs nopw 0x0(%rax,%rax,1)
   153b8:	66 2e 0f 1f 84 00 00 00 00 00 	cs nopw 0x0(%rax,%rax,1)
   153c2:	66 2e 0f 1f 84 00 00 00 00 00 	cs nopw 0x0(%rax,%rax,1)
   153cc:	66 2e 0f 1f 84 00 00 00 00 00 	cs nopw 0x0(%rax,%rax,1)
   153d6:	66 2e 0f 1f 84 00 00 00 00 00 	cs nopw 0x0(%rax,%rax,1)
   153e0:	66 2e 0f 1f 84 00 00 00 00 00 	cs nopw 0x0(%rax,%rax,1)
   153ea:	66 2e 0f 1f 84 00 00 00 00 00 	cs nopw 0x0(%rax,%rax,1)
   153f4:	66 2e 0f 1f 84 00 00 00 00 00 	cs nopw 0x0(%rax,%rax,1)
   153fe:	66 2e 0f 1f 84 00 00 00 00 00 	cs nopw 0x0(%rax,%rax,1)
   15408:	66 2e 0f 1f 84 00 00 00 00 00 	cs nopw 0x0(%rax,%rax,1)
   15412:	66 2e 0f 1f 84 00 00 00 00 00 	cs nopw 0x0(%rax,%rax,1)
   1541c:	66 2e 0f 1f 84 00 00 00 00 00 	cs nopw 0x0(%rax,%rax,1)
   15426:	66 2e 0f 1f 84 00 00 00 00 00 	cs nopw 0x0(%rax,%rax,1)
   15430:	66 2e 0f 1f 84 00 00 00 00 00 	cs nopw 0x0(%rax,%rax,1)
   1543a:	66 2e 0f 1f 84 00 00 00 00 00 	cs nopw 0x0(%rax,%rax,1)
   15444:	66 2e 0f 1f 84 00 00 00 00 00 	cs nopw 0x0(%rax,%rax,1)
   1544e:	66 2e 0f 1f 84 00 00 00 00 00 	cs nopw 0x0(%rax,%rax,1)
   15458:	66 2e 0f 1f 84 00 00 00 00 00 	cs nopw 0x0(%rax,%rax,1)
   15462:	66 2e 0f 1f 84 00 00 00 00 00 	cs nopw 0x0(%rax,%rax,1)
   1546c:	66 2e 0f 1f 84 00 00 00 00 00 	cs nopw 0x0(%rax,%rax,1)
   15476:	66 2e 0f 1f 84 00 00 00 00 00 	cs nopw 0x0(%rax,%rax,1)
   15480:	66 2e 0f 1f 84 00 00 00 00 00 	cs nopw 0x0(%rax,%rax,1)
   1548a:	66 2e 0f 1f 84 00 00 00 00 00 	cs nopw 0x0(%rax,%rax,1)
   15494:	66 2e 0f 1f 84 00 00 00 00 00 	cs nopw 0x0(%rax,%rax,1)
   1549e:	66 2e 0f 1f 84 00 00 00 00 00 	cs nopw 0x0(%rax,%rax,1)
   154a8:	66 2e 0f 1f 84 00 00 00 00 00 	cs nopw 0x0(%rax,%rax,1)
   154b2:	66 2e 0f 1f 84 00 00 00 00 00 	cs nopw 0x0(%rax,%rax,1)
   154bc:	66 2e 0f 1f 84 00 00 00 00 00 	cs nopw 0x0(%rax,%rax,1)
   154c6:	66 2e 0f 1f 84 00 00 00 00 00 	cs nopw 0x0(%rax,%rax,1)
   154d0:	66 2e 0f 1f 84 00 00 00 00 00 	cs nopw 0x0(%rax,%rax,1)
   154da:	66 2e 0f 1f 84 00 00 00 00 00 	cs nopw 0x0(%rax,%rax,1)
   154e4:	66 2e 0f 1f 84 00 00 00 00 00 	cs nopw 0x0(%rax,%rax,1)
   154ee:	66 2e 0f 1f 84 00 00 00 00 00 	cs nopw 0x0(%rax,%rax,1)
   154f8:	66 2e 0f 1f 84 00 00 00 00 00 	cs nopw 0x0(%rax,%rax,1)
   15502:	66 2e 0f 1f 84 00 00 00 00 00 	cs nopw 0x0(%rax,%rax,1)
   1550c:	66 2e 0f 1f 84 00 00 00 00 00 	cs nopw 0x0(%rax,%rax,1)
   15516:	66 2e 0f 1f 84 00 00 00 00 00 	cs nopw 0x0(%rax,%rax,1)
   15520:	66 2e 0f 1f 84 00 00 00 00 00 	cs nopw 0x0(%rax,%rax,1)
   1552a:	66 2e 0f 1f 84 00 00 00 00 00 	cs nopw 0x0(%rax,%rax,1)
   15534:	66 2e 0f 1f 84 00 00 00 00 00 	cs nopw 0x0(%rax,%rax,1)
   1553e:	66 2e 0f 1f 84 00 00 00 00 00 	cs nopw 0x0(%rax,%rax,1)
   15548:	66 2e 0f 1f 84 00 00 00 00 00 	cs nopw 0x0(%rax,%rax,1)
   15552:	66 2e 0f 1f 84 00 00 00 00 00 	cs nopw 0x0(%rax,%rax,1)
   1555c:	66 2e 0f 1f 84 00 00 00 00 00 	cs nopw 0x0(%rax,%rax,1)
   15566:	66 2e 0f 1f 84 00 00 00 00 00 	cs nopw 0x0(%rax,%rax,1)
   15570:	66 2e 0f 1f 84 00 00 00 00 00 	cs nopw 0x0(%rax,%rax,1)
   1557a:	66 2e 0f 1f 84 00 00 00 00 00 	cs nopw 0x0(%rax,%rax,1)
   15584:	66 2e 0f 1f 84 00 00 00 00 00 	cs nopw 0x0(%rax,%rax,1)
   1558e:	66 2e 0f 1f 84 00 00 00 00 00 	cs nopw 0x0(%rax,%rax,1)
   15598:	66 2e 0f 1f 84 00 00 00 00 00 	cs nopw 0x0(%rax,%rax,1)
   155a2:	66 2e 0f 1f 84 00 00 00 00 00 	cs nopw 0x0(%rax,%rax,1)
   155ac:	66 2e 0f 1f 84 00 00 00 00 00 	cs nopw 0x0(%rax,%rax,1)
   155b6:	66 2e 0f 1f 84 00 00 00 00 00 	cs nopw 0x0(%rax,%rax,1)
   155c0:	66 2e 0f 1f 84 00 00 00 00 00 	cs nopw 0x0(%rax,%rax,1)
   155ca:	66 2e 0f 1f 84 00 00 00 00 00 	cs nopw 0x0(%rax,%rax,1)
   155d4:	66 2e 0f 1f 84 00 00 00 00 00 	cs nopw 0x0(%rax,%rax,1)
   155de:	66 2e 0f 1f 84 00 00 00 00 00 	cs nopw 0x0(%rax,%rax,1)
   155e8:	66 2e 0f 1f 84 00 00 00 00 00 	cs nopw 0x0(%rax,%rax,1)
   155f2:	66 2e 0f 1f 84 00 00 00 00 00 	cs nopw 0x0(%rax,%rax,1)
   155fc:	66 2e 0f 1f 84 00 00 00 00 00 	cs nopw 0x0(%rax,%rax,1)
   15606:	66 2e 0f 1f 84 00 00 00 00 00 	cs nopw 0x0(%rax,%rax,1)
   15610:	66 2e 0f 1f 84 00 00 00 00 00 	cs nopw 0x0(%rax,%rax,1)
   1561a:	66 2e 0f 1f 84 00 00 00 00 00 	cs nopw 0x0(%rax,%rax,1)
   15624:	66 2e 0f 1f 84 00 00 00 00 00 	cs nopw 0x0(%rax,%rax,1)
   1562e:	66 2e 0f 1f 84 00 00 00 00 00 	cs nopw 0x0(%rax,%rax,1)
   15638:	66 2e 0f 1f 84 00 00 00 00 00 	cs nopw 0x0(%rax,%rax,1)
   15642:	66 2e 0f 1f 84 00 00 00 00 00 	cs nopw 0x0(%rax,%rax,1)
   1564c:	66 2e 0f 1f 84 00 00 00 00 00 	cs nopw 0x0(%rax,%rax,1)
   15656:	66 2e 0f 1f 84 00 00 00 00 00 	cs nopw 0x0(%rax,%rax,1)
   15660:	66 2e 0f 1f 84 00 00 00 00 00 	cs nopw 0x0(%rax,%rax,1)
   1566a:	66 2e 0f 1f 84 00 00 00 00 00 	cs nopw 0x0(%rax,%rax,1)
   15674:	66 2e 0f 1f 84 00 00 00 00 00 	cs nopw 0x0(%rax,%rax,1)
   1567e:	66 2e 0f 1f 84 00 00 00 00 00 	cs nopw 0x0(%rax,%rax,1)
   15688:	66 2e 0f 1f 84 00 00 00 00 00 	cs nopw 0x0(%rax,%rax,1)
   15692:	66 2e 0f 1f 84 00 00 00 00 00 	cs nopw 0x0(%rax,%rax,1)
   1569c:	66 2e 0f 1f 84 00 00 00 00 00 	cs nopw 0x0(%rax,%rax,1)
   156a6:	66 2e 0f 1f 84 00 00 00 00 00 	cs nopw 0x0(%rax,%rax,1)
   156b0:	66 2e 0f 1f 84 00 00 00 00 00 	cs nopw 0x0(%rax,%rax,1)
   156ba:	66 2e 0f 1f 84 00 00 00 00 00 	cs nopw 0x0(%rax,%rax,1)
   156c4:	66 2e 0f 1f 84 00 00 00 00 00 	cs nopw 0x0(%rax,%rax,1)
   156ce:	66 2e 0f 1f 84 00 00 00 00 00 	cs nopw 0x0(%rax,%rax,1)
   156d8:	66 2e 0f 1f 84 00 00 00 00 00 	cs nopw 0x0(%rax,%rax,1)
   156e2:	66 2e 0f 1f 84 00 00 00 00 00 	cs nopw 0x0(%rax,%rax,1)
   156ec:	66 2e 0f 1f 84 00 00 00 00 00 	cs nopw 0x0(%rax,%rax,1)
   156f6:	66 2e 0f 1f 84 00 00 00 00 00 	cs nopw 0x0(%rax,%rax,1)
   15700:	66 2e 0f 1f 84 00 00 00 00 00 	cs nopw 0x0(%rax,%rax,1)
   1570a:	66 2e 0f 1f 84 00 00 00 00 00 	cs nopw 0x0(%rax,%rax,1)
   15714:	66 2e 0f 1f 84 00 00 00 00 00 	cs nopw 0x0(%rax,%rax,1)
   1571e:	66 2e 0f 1f 84 00 00 00 00 00 	cs nopw 0x0(%rax,%rax,1)
   15728:	66 2e 0f 1f 84 00 00 00 00 00 	cs nopw 0x0(%rax,%rax,1)
   15732:	66 2e 0f 1f 84 00 00 00 00 00 	cs nopw 0x0(%rax,%rax,1)
   1573c:	66 2e 0f 1f 84 00 00 00 00 00 	cs nopw 0x0(%rax,%rax,1)
   15746:	66 2e 0f 1f 84 00 00 00 00 00 	cs nopw 0x0(%rax,%rax,1)
   15750:	66 2e 0f 1f 84 00 00 00 00 00 	cs nopw 0x0(%rax,%rax,1)
   1575a:	66 2e 0f 1f 84 00 00 00 00 00 	cs nopw 0x0(%rax,%rax,1)
   15764:	66 2e 0f 1f 84 00 00 00 00 00 	cs nopw 0x0(%rax,%rax,1)
   1576e:	66 2e 0f 1f 84 00 00 00 00 00 	cs nopw 0x0(%rax,%rax,1)
   15778:	66 2e 0f 1f 84 00 00 00 00 00 	cs nopw 0x0(%rax,%rax,1)
   15782:	66 2e 0f 1f 84 00 00 00 00 00 	cs nopw 0x0(%rax,%rax,1)
   1578c:	66 2e 0f 1f 84 00 00 00 00 00 	cs nopw 0x0(%rax,%rax,1)
   15796:	66 2e 0f 1f 84 00 00 00 00 00 	cs nopw 0x0(%rax,%rax,1)
   157a0:	66 2e 0f 1f 84 00 00 00 00 00 	cs nopw 0x0(%rax,%rax,1)
   157aa:	66 2e 0f 1f 84 00 00 00 00 00 	cs nopw 0x0(%rax,%rax,1)
   157b4:	66 2e 0f 1f 84 00 00 00 00 00 	cs nopw 0x0(%rax,%rax,1)
   157be:	66 2e 0f 1f 84 00 00 00 00 00 	cs nopw 0x0(%rax,%rax,1)
   157c8:	66 2e 0f 1f 84 00 00 00 00 00 	cs nopw 0x0(%rax,%rax,1)
   157d2:	66 2e 0f 1f 84 00 00 00 00 00 	cs nopw 0x0(%rax,%rax,1)
   157dc:	66 2e 0f 1f 84 00 00 00 00 00 	cs nopw 0x0(%rax,%rax,1)
   157e6:	66 2e 0f 1f 84 00 00 00 00 00 	cs nopw 0x0(%rax,%rax,1)
   157f0:	66 2e 0f 1f 84 00 00 00 00 00 	cs nopw 0x0(%rax,%rax,1)
   157fa:	66 2e 0f 1f 84 00 00 00 00 00 	cs nopw 0x0(%rax,%rax,1)
   15804:	66 2e 0f 1f 84 00 00 00 00 00 	cs nopw 0x0(%rax,%rax,1)
   1580e:	66 2e 0f 1f 84 00 00 00 00 00 	cs nopw 0x0(%rax,%rax,1)
   15818:	66 2e 0f 1f 84 00 00 00 00 00 	cs nopw 0x0(%rax,%rax,1)
   15822:	66 2e 0f 1f 84 00 00 00 00 00 	cs nopw 0x0(%rax,%rax,1)
   1582c:	66 2e 0f 1f 84 00 00 00 00 00 	cs nopw 0x0(%rax,%rax,1)
   15836:	66 2e 0f 1f 84 00 00 00 00 00 	cs nopw 0x0(%rax,%rax,1)
   15840:	66 2e 0f 1f 84 00 00 00 00 00 	cs nopw 0x0(%rax,%rax,1)
   1584a:	66 2e 0f 1f 84 00 00 00 00 00 	cs nopw 0x0(%rax,%rax,1)
   15854:	66 2e 0f 1f 84 00 00 00 00 00 	cs nopw 0x0(%rax,%rax,1)
   1585e:	66 2e 0f 1f 84 00 00 00 00 00 	cs nopw 0x0(%rax,%rax,1)
   15868:	66 2e 0f 1f 84 00 00 00 00 00 	cs nopw 0x0(%rax,%rax,1)
   15872:	66 2e 0f 1f 84 00 00 00 00 00 	cs nopw 0x0(%rax,%rax,1)
   1587c:	66 2e 0f 1f 84 00 00 00 00 00 	cs nopw 0x0(%rax,%rax,1)
   15886:	66 2e 0f 1f 84 00 00 00 00 00 	cs nopw 0x0(%rax,%rax,1)
   15890:	66 2e 0f 1f 84 00 00 00 00 00 	cs nopw 0x0(%rax,%rax,1)
   1589a:	66 2e 0f 1f 84 00 00 00 00 00 	cs nopw 0x0(%rax,%rax,1)
   158a4:	66 2e 0f 1f 84 00 00 00 00 00 	cs nopw 0x0(%rax,%rax,1)
   158ae:	66 2e 0f 1f 84 00 00 00 00 00 	cs nopw 0x0(%rax,%rax,1)
   158b8:	66 2e 0f 1f 84 00 00 00 00 00 	cs nopw 0x0(%rax,%rax,1)
   158c2:	66 2e 0f 1f 84 00 00 00 00 00 	cs nopw 0x0(%rax,%rax,1)
   158cc:	66 2e 0f 1f 84 00 00 00 00 00 	cs nopw 0x0(%rax,%rax,1)
   158d6:	66 2e 0f 1f 84 00 00 00 00 00 	cs nopw 0x0(%rax,%rax,1)
   158e0:	66 2e 0f 1f 84 00 00 00 00 00 	cs nopw 0x0(%rax,%rax,1)
   158ea:	66 2e 0f 1f 84 00 00 00 00 00 	cs nopw 0x0(%rax,%rax,1)
   158f4:	66 2e 0f 1f 84 00 00 00 00 00 	cs nopw 0x0(%rax,%rax,1)
   158fe:	66 2e 0f 1f 84 00 00 00 00 00 	cs nopw 0x0(%rax,%rax,1)
   15908:	66 2e 0f 1f 84 00 00 00 00 00 	cs nopw 0x0(%rax,%rax,1)
   15912:	66 2e 0f 1f 84 00 00 00 00 00 	cs nopw 0x0(%rax,%rax,1)
   1591c:	66 2e 0f 1f 84 00 00 00 00 00 	cs nopw 0x0(%rax,%rax,1)
   15926:	66 2e 0f 1f 84 00 00 00 00 00 	cs nopw 0x0(%rax,%rax,1)
   15930:	66 2e 0f 1f 84 00 00 00 00 00 	cs nopw 0x0(%rax,%rax,1)
   1593a:	66 2e 0f 1f 84 00 00 00 00 00 	cs nopw 0x0(%rax,%rax,1)
   15944:	66 2e 0f 1f 84 00 00 00 00 00 	cs nopw 0x0(%rax,%rax,1)
   1594e:	66 2e 0f 1f 84 00 00 00 00 00 	cs nopw 0x0(%rax,%rax,1)
   15958:	66 2e 0f 1f 84 00 00 00 00 00 	cs nopw 0x0(%rax,%rax,1)
   15962:	66 2e 0f 1f 84 00 00 00 00 00 	cs nopw 0x0(%rax,%rax,1)
   1596c:	66 2e 0f 1f 84 00 00 00 00 00 	cs nopw 0x0(%rax,%rax,1)
   15976:	66 2e 0f 1f 84 00 00 00 00 00 	cs nopw 0x0(%rax,%rax,1)
   15980:	66 2e 0f 1f 84 00 00 00 00 00 	cs nopw 0x0(%rax,%rax,1)
   1598a:	66 2e 0f 1f 84 00 00 00 00 00 	cs nopw 0x0(%rax,%rax,1)
   15994:	66 2e 0f 1f 84 00 00 00 00 00 	cs nopw 0x0(%rax,%rax,1)
   1599e:	66 2e 0f 1f 84 00 00 00 00 00 	cs nopw 0x0(%rax,%rax,1)
   159a8:	66 2e 0f 1f 84 00 00 00 00 00 	cs nopw 0x0(%rax,%rax,1)
   159b2:	66 2e 0f 1f 84 00 00 00 00 00 	cs nopw 0x0(%rax,%rax,1)
   159bc:	66 2e 0f 1f 84 00 00 00 00 00 	cs nopw 0x0(%rax,%rax,1)
   159c6:	66 2e 0f 1f 84 00 00 00 00 00 	cs nopw 0x0(%rax,%rax,1)
   159d0:	66 2e 0f 1f 84 00 00 00 00 00 	cs nopw 0x0(%rax,%rax,1)
   159da:	66 2e 0f 1f 84 00 00 00 00 00 	cs nopw 0x0(%rax,%rax,1)
   159e4:	66 2e 0f 1f 84 00 00 00 00 00 	cs nopw 0x0(%rax,%rax,1)
   159ee:	66 2e 0f 1f 84 00 00 00 00 00 	cs nopw 0x0(%rax,%rax,1)
   159f8:	66 2e 0f 1f 84 00 00 00 00 00 	cs nopw 0x0(%rax,%rax,1)
   15a02:	66 2e 0f 1f 84 00 00 00 00 00 	cs nopw 0x0(%rax,%rax,1)
   15a0c:	66 2e 0f 1f 84 00 00 00 00 00 	cs nopw 0x0(%rax,%rax,1)
   15a16:	66 2e 0f 1f 84 00 00 00 00 00 	cs nopw 0x0(%rax,%rax,1)
   15a20:	66 2e 0f 1f 84 00 00 00 00 00 	cs nopw 0x0(%rax,%rax,1)
   15a2a:	66 2e 0f 1f 84 00 00 00 00 00 	cs nopw 0x0(%rax,%rax,1)
   15a34:	66 2e 0f 1f 84 00 00 00 00 00 	cs nopw 0x0(%rax,%rax,1)
   15a3e:	66 2e 0f 1f 84 00 00 00 00 00 	cs nopw 0x0(%rax,%rax,1)
   15a48:	66 2e 0f 1f 84 00 00 00 00 00 	cs nopw 0x0(%rax,%rax,1)
   15a52:	66 2e 0f 1f 84 00 00 00 00 00 	cs nopw 0x0(%rax,%rax,1)
   15a5c:	66 2e 0f 1f 84 00 00 00 00 00 	cs nopw 0x0(%rax,%rax,1)
   15a66:	66 2e 0f 1f 84 00 00 00 00 00 	cs nopw 0x0(%rax,%rax,1)
   15a70:	66 2e 0f 1f 84 00 00 00 00 00 	cs nopw 0x0(%rax,%rax,1)
   15a7a:	66 2e 0f 1f 84 00 00 00 00 00 	cs nopw 0x0(%rax,%rax,1)
   15a84:	66 2e 0f 1f 84 00 00 00 00 00 	cs nopw 0x0(%rax,%rax,1)
   15a8e:	66 2e 0f 1f 84 00 00 00 00 00 	cs nopw 0x0(%rax,%rax,1)
   15a98:	66 2e 0f 1f 84 00 00 00 00 00 	cs nopw 0x0(%rax,%rax,1)
   15aa2:	66 2e 0f 1f 84 00 00 00 00 00 	cs nopw 0x0(%rax,%rax,1)
   15aac:	66 2e 0f 1f 84 00 00 00 00 00 	cs nopw 0x0(%rax,%rax,1)
   15ab6:	66 2e 0f 1f 84 00 00 00 00 00 	cs nopw 0x0(%rax,%rax,1)
   15ac0:	66 2e 0f 1f 84 00 00 00 00 00 	cs nopw 0x0(%rax,%rax,1)
   15aca:	66 2e 0f 1f 84 00 00 00 00 00 	cs nopw 0x0(%rax,%rax,1)
   15ad4:	66 2e 0f 1f 84 00 00 00 00 00 	cs nopw 0x0(%rax,%rax,1)
   15ade:	66 2e 0f 1f 84 00 00 00 00 00 	cs nopw 0x0(%rax,%rax,1)
   15ae8:	66 2e 0f 1f 84 00 00 00 00 00 	cs nopw 0x0(%rax,%rax,1)
   15af2:	66 2e 0f 1f 84 00 00 00 00 00 	cs nopw 0x0(%rax,%rax,1)
   15afc:	66 2e 0f 1f 84 00 00 00 00 00 	cs nopw 0x0(%rax,%rax,1)
   15b06:	66 2e 0f 1f 84 00 00 00 00 00 	cs nopw 0x0(%rax,%rax,1)
   15b10:	66 2e 0f 1f 84 00 00 00 00 00 	cs nopw 0x0(%rax,%rax,1)
   15b1a:	66 2e 0f 1f 84 00 00 00 00 00 	cs nopw 0x0(%rax,%rax,1)
   15b24:	66 2e 0f 1f 84 00 00 00 00 00 	cs nopw 0x0(%rax,%rax,1)
   15b2e:	66 2e 0f 1f 84 00 00 00 00 00 	cs nopw 0x0(%rax,%rax,1)
   15b38:	66 2e 0f 1f 84 00 00 00 00 00 	cs nopw 0x0(%rax,%rax,1)
   15b42:	66 2e 0f 1f 84 00 00 00 00 00 	cs nopw 0x0(%rax,%rax,1)
   15b4c:	66 2e 0f 1f 84 00 00 00 00 00 	cs nopw 0x0(%rax,%rax,1)
   15b56:	66 2e 0f 1f 84 00 00 00 00 00 	cs nopw 0x0(%rax,%rax,1)
   15b60:	66 2e 0f 1f 84 00 00 00 00 00 	cs nopw 0x0(%rax,%rax,1)
   15b6a:	66 2e 0f 1f 84 00 00 00 00 00 	cs nopw 0x0(%rax,%rax,1)
   15b74:	66 2e 0f 1f 84 00 00 00 00 00 	cs nopw 0x0(%rax,%rax,1)
   15b7e:	66 2e 0f 1f 84 00 00 00 00 00 	cs nopw 0x0(%rax,%rax,1)
   15b88:	66 2e 0f 1f 84 00 00 00 00 00 	cs nopw 0x0(%rax,%rax,1)
   15b92:	66 2e 0f 1f 84 00 00 00 00 00 	cs nopw 0x0(%rax,%rax,1)
   15b9c:	66 2e 0f 1f 84 00 00 00 00 00 	cs nopw 0x0(%rax,%rax,1)
   15ba6:	66 2e 0f 1f 84 00 00 00 00 00 	cs nopw 0x0(%rax,%rax,1)
   15bb0:	66 2e 0f 1f 84 00 00 00 00 00 	cs nopw 0x0(%rax,%rax,1)
   15bba:	66 2e 0f 1f 84 00 00 00 00 00 	cs nopw 0x0(%rax,%rax,1)
   15bc4:	66 2e 0f 1f 84 00 00 00 00 00 	cs nopw 0x0(%rax,%rax,1)
   15bce:	66 2e 0f 1f 84 00 00 00 00 00 	cs nopw 0x0(%rax,%rax,1)
   15bd8:	66 2e 0f 1f 84 00 00 00 00 00 	cs nopw 0x0(%rax,%rax,1)
   15be2:	66 2e 0f 1f 84 00 00 00 00 00 	cs nopw 0x0(%rax,%rax,1)
   15bec:	66 2e 0f 1f 84 00 00 00 00 00 	cs nopw 0x0(%rax,%rax,1)
   15bf6:	66 2e 0f 1f 84 00 00 00 00 00 	cs nopw 0x0(%rax,%rax,1)
   15c00:	66 2e 0f 1f 84 00 00 00 00 00 	cs nopw 0x0(%rax,%rax,1)
   15c0a:	66 2e 0f 1f 84 00 00 00 00 00 	cs nopw 0x0(%rax,%rax,1)
   15c14:	66 2e 0f 1f 84 00 00 00 00 00 	cs nopw 0x0(%rax,%rax,1)
   15c1e:	66 2e 0f 1f 84 00 00 00 00 00 	cs nopw 0x0(%rax,%rax,1)
   15c28:	66 2e 0f 1f 84 00 00 00 00 00 	cs nopw 0x0(%rax,%rax,1)
   15c32:	66 2e 0f 1f 84 00 00 00 00 00 	cs nopw 0x0(%rax,%rax,1)
   15c3c:	66 2e 0f 1f 84 00 00 00 00 00 	cs nopw 0x0(%rax,%rax,1)
   15c46:	66 2e 0f 1f 84 00 00 00 00 00 	cs nopw 0x0(%rax,%rax,1)
   15c50:	66 2e 0f 1f 84 00 00 00 00 00 	cs nopw 0x0(%rax,%rax,1)
   15c5a:	66 2e 0f 1f 84 00 00 00 00 00 	cs nopw 0x0(%rax,%rax,1)
   15c64:	66 2e 0f 1f 84 00 00 00 00 00 	cs nopw 0x0(%rax,%rax,1)
   15c6e:	66 2e 0f 1f 84 00 00 00 00 00 	cs nopw 0x0(%rax,%rax,1)
   15c78:	66 2e 0f 1f 84 00 00 00 00 00 	cs nopw 0x0(%rax,%rax,1)
   15c82:	66 2e 0f 1f 84 00 00 00 00 00 	cs nopw 0x0(%rax,%rax,1)
   15c8c:	66 2e 0f 1f 84 00 00 00 00 00 	cs nopw 0x0(%rax,%rax,1)
   15c96:	66 2e 0f 1f 84 00 00 00 00 00 	cs nopw 0x0(%rax,%rax,1)
   15ca0:	66 2e 0f 1f 84 00 00 00 00 00 	cs nopw 0x0(%rax,%rax,1)
   15caa:	66 2e 0f 1f 84 00 00 00 00 00 	cs nopw 0x0(%rax,%rax,1)
   15cb4:	66 2e 0f 1f 84 00 00 00 00 00 	cs nopw 0x0(%rax,%rax,1)
   15cbe:	66 2e 0f 1f 84 00 00 00 00 00 	cs nopw 0x0(%rax,%rax,1)
   15cc8:	66 2e 0f 1f 84 00 00 00 00 00 	cs nopw 0x0(%rax,%rax,1)
   15cd2:	66 2e 0f 1f 84 00 00 00 00 00 	cs nopw 0x0(%rax,%rax,1)
   15cdc:	66 2e 0f 1f 84 00 00 00 00 00 	cs nopw 0x0(%rax,%rax,1)
   15ce6:	66 2e 0f 1f 84 00 00 00 00 00 	cs nopw 0x0(%rax,%rax,1)
   15cf0:	66 2e 0f 1f 84 00 00 00 00 00 	cs nopw 0x0(%rax,%rax,1)
   15cfa:	66 2e 0f 1f 84 00 00 00 00 00 	cs nopw 0x0(%rax,%rax,1)
   15d04:	66 2e 0f 1f 84 00 00 00 00 00 	cs nopw 0x0(%rax,%rax,1)
   15d0e:	66 2e 0f 1f 84 00 00 00 00 00 	cs nopw 0x0(%rax,%rax,1)
   15d18:	66 2e 0f 1f 84 00 00 00 00 00 	cs nopw 0x0(%rax,%rax,1)
   15d22:	66 2e 0f 1f 84 00 00 00 00 00 	cs nopw 0x0(%rax,%rax,1)
   15d2c:	66 2e 0f 1f 84 00 00 00 00 00 	cs nopw 0x0(%rax,%rax,1)
   15d36:	66 2e 0f 1f 84 00 00 00 00 00 	cs nopw 0x0(%rax,%rax,1)
   15d40:	66 2e 0f 1f 84 00 00 00 00 00 	cs nopw 0x0(%rax,%rax,1)
   15d4a:	66 2e 0f 1f 84 00 00 00 00 00 	cs nopw 0x0(%rax,%rax,1)
   15d54:	66 2e 0f 1f 84 00 00 00 00 00 	cs nopw 0x0(%rax,%rax,1)
   15d5e:	66 2e 0f 1f 84 00 00 00 00 00 	cs nopw 0x0(%rax,%rax,1)
   15d68:	66 2e 0f 1f 84 00 00 00 00 00 	cs nopw 0x0(%rax,%rax,1)
   15d72:	66 2e 0f 1f 84 00 00 00 00 00 	cs nopw 0x0(%rax,%rax,1)
   15d7c:	66 2e 0f 1f 84 00 00 00 00 00 	cs nopw 0x0(%rax,%rax,1)
   15d86:	66 2e 0f 1f 84 00 00 00 00 00 	cs nopw 0x0(%rax,%rax,1)
   15d90:	66 2e 0f 1f 84 00 00 00 00 00 	cs nopw 0x0(%rax,%rax,1)
   15d9a:	66 2e 0f 1f 84 00 00 00 00 00 	cs nopw 0x0(%rax,%rax,1)
   15da4:	66 2e 0f 1f 84 00 00 00 00 00 	cs nopw 0x0(%rax,%rax,1)
   15dae:	66 2e 0f 1f 84 00 00 00 00 00 	cs nopw 0x0(%rax,%rax,1)
   15db8:	66 2e 0f 1f 84 00 00 00 00 00 	cs nopw 0x0(%rax,%rax,1)
   15dc2:	66 2e 0f 1f 84 00 00 00 00 00 	cs nopw 0x0(%rax,%rax,1)
   15dcc:	66 2e 0f 1f 84 00 00 00 00 00 	cs nopw 0x0(%rax,%rax,1)
   15dd6:	66 2e 0f 1f 84 00 00 00 00 00 	cs nopw 0x0(%rax,%rax,1)
   15de0:	66 2e 0f 1f 84 00 00 00 00 00 	cs nopw 0x0(%rax,%rax,1)
   15dea:	66 2e 0f 1f 84 00 00 00 00 00 	cs nopw 0x0(%rax,%rax,1)
   15df4:	66 2e 0f 1f 84 00 00 00 00 00 	cs nopw 0x0(%rax,%rax,1)
   15dfe:	66 2e 0f 1f 84 00 00 00 00 00 	cs nopw 0x0(%rax,%rax,1)
   15e08:	66 2e 0f 1f 84 00 00 00 00 00 	cs nopw 0x0(%rax,%rax,1)
   15e12:	66 2e 0f 1f 84 00 00 00 00 00 	cs nopw 0x0(%rax,%rax,1)
   15e1c:	66 2e 0f 1f 84 00 00 00 00 00 	cs nopw 0x0(%rax,%rax,1)
   15e26:	66 2e 0f 1f 84 00 00 00 00 00 	cs nopw 0x0(%rax,%rax,1)
   15e30:	66 2e 0f 1f 84 00 00 00 00 00 	cs nopw 0x0(%rax,%rax,1)
   15e3a:	66 2e 0f 1f 84 00 00 00 00 00 	cs nopw 0x0(%rax,%rax,1)
   15e44:	66 2e 0f 1f 84 00 00 00 00 00 	cs nopw 0x0(%rax,%rax,1)
   15e4e:	66 2e 0f 1f 84 00 00 00 00 00 	cs nopw 0x0(%rax,%rax,1)
   15e58:	66 2e 0f 1f 84 00 00 00 00 00 	cs nopw 0x0(%rax,%rax,1)
   15e62:	66 2e 0f 1f 84 00 00 00 00 00 	cs nopw 0x0(%rax,%rax,1)
   15e6c:	66 2e 0f 1f 84 00 00 00 00 00 	cs nopw 0x0(%rax,%rax,1)
   15e76:	66 2e 0f 1f 84 00 00 00 00 00 	cs nopw 0x0(%rax,%rax,1)
   15e80:	66 2e 0f 1f 84 00 00 00 00 00 	cs nopw 0x0(%rax,%rax,1)
   15e8a:	66 2e 0f 1f 84 00 00 00 00 00 	cs nopw 0x0(%rax,%rax,1)
   15e94:	66 2e 0f 1f 84 00 00 00 00 00 	cs nopw 0x0(%rax,%rax,1)
   15e9e:	66 2e 0f 1f 84 00 00 00 00 00 	cs nopw 0x0(%rax,%rax,1)
   15ea8:	66 2e 0f 1f 84 00 00 00 00 00 	cs nopw 0x0(%rax,%rax,1)
   15eb2:	66 2e 0f 1f 84 00 00 00 00 00 	cs nopw 0x0(%rax,%rax,1)
   15ebc:	66 2e 0f 1f 84 00 00 00 00 00 	cs nopw 0x0(%rax,%rax,1)
   15ec6:	66 2e 0f 1f 84 00 00 00 00 00 	cs nopw 0x0(%rax,%rax,1)
   15ed0:	66 2e 0f 1f 84 00 00 00 00 00 	cs nopw 0x0(%rax,%rax,1)
   15eda:	66 2e 0f 1f 84 00 00 00 00 00 	cs nopw 0x0(%rax,%rax,1)
   15ee4:	66 2e 0f 1f 84 00 00 00 00 00 	cs nopw 0x0(%rax,%rax,1)
   15eee:	66 2e 0f 1f 84 00 00 00 00 00 	cs nopw 0x0(%rax,%rax,1)
   15ef8:	66 2e 0f 1f 84 00 00 00 00 00 	cs nopw 0x0(%rax,%rax,1)
   15f02:	66 2e 0f 1f 84 00 00 00 00 00 	cs nopw 0x0(%rax,%rax,1)
   15f0c:	66 2e 0f 1f 84 00 00 00 00 00 	cs nopw 0x0(%rax,%rax,1)
   15f16:	66 2e 0f 1f 84 00 00 00 00 00 	cs nopw 0x0(%rax,%rax,1)
   15f20:	66 2e 0f 1f 84 00 00 00 00 00 	cs nopw 0x0(%rax,%rax,1)
   15f2a:	66 2e 0f 1f 84 00 00 00 00 00 	cs nopw 0x0(%rax,%rax,1)
   15f34:	66 2e 0f 1f 84 00 00 00 00 00 	cs nopw 0x0(%rax,%rax,1)
   15f3e:	66 2e 0f 1f 84 00 00 00 00 00 	cs nopw 0x0(%rax,%rax,1)
   15f48:	66 2e 0f 1f 84 00 00 00 00 00 	cs nopw 0x0(%rax,%rax,1)
   15f52:	66 2e 0f 1f 84 00 00 00 00 00 	cs nopw 0x0(%rax,%rax,1)
   15f5c:	66 2e 0f 1f 84 00 00 00 00 00 	cs nopw 0x0(%rax,%rax,1)
   15f66:	66 2e 0f 1f 84 00 00 00 00 00 	cs nopw 0x0(%rax,%rax,1)
   15f70:	66 2e 0f 1f 84 00 00 00 00 00 	cs nopw 0x0(%rax,%rax,1)
   15f7a:	66 2e 0f 1f 84 00 00 00 00 00 	cs nopw 0x0(%rax,%rax,1)
   15f84:	66 2e 0f 1f 84 00 00 00 00 00 	cs nopw 0x0(%rax,%rax,1)
   15f8e:	66 2e 0f 1f 84 00 00 00 00 00 	cs nopw 0x0(%rax,%rax,1)
   15f98:	66 2e 0f 1f 84 00 00 00 00 00 	cs nopw 0x0(%rax,%rax,1)
   15fa2:	66 2e 0f 1f 84 00 00 00 00 00 	cs nopw 0x0(%rax,%rax,1)
   15fac:	66 2e 0f 1f 84 00 00 00 00 00 	cs nopw 0x0(%rax,%rax,1)
   15fb6:	66 2e 0f 1f 84 00 00 00 00 00 	cs nopw 0x0(%rax,%rax,1)
   15fc0:	66 2e 0f 1f 84 00 00 00 00 00 	cs nopw 0x0(%rax,%rax,1)
   15fca:	66 2e 0f 1f 84 00 00 00 00 00 	cs nopw 0x0(%rax,%rax,1)
   15fd4:	66 2e 0f 1f 84 00 00 00 00 00 	cs nopw 0x0(%rax,%rax,1)
   15fde:	66 2e 0f 1f 84 00 00 00 00 00 	cs nopw 0x0(%rax,%rax,1)
   15fe8:	66 2e 0f 1f 84 00 00 00 00 00 	cs nopw 0x0(%rax,%rax,1)
   15ff2:	66 2e 0f 1f 84 00 00 00 00 00 	cs nopw 0x0(%rax,%rax,1)
   15ffc:	66 2e 0f 1f 84 00 00 00 00 00 	cs nopw 0x0(%rax,%rax,1)
   16006:	66 2e 0f 1f 84 00 00 00 00 00 	cs nopw 0x0(%rax,%rax,1)
   16010:	66 2e 0f 1f 84 00 00 00 00 00 	cs nopw 0x0(%rax,%rax,1)
   1601a:	66 2e 0f 1f 84 00 00 00 00 00 	cs nopw 0x0(%rax,%rax,1)
   16024:	66 2e 0f 1f 84 00 00 00 00 00 	cs nopw 0x0(%rax,%rax,1)
   1602e:	66 2e 0f 1f 84 00 00 00 00 00 	cs nopw 0x0(%rax,%rax,1)
   16038:	66 2e 0f 1f 84 00 00 00 00 00 	cs nopw 0x0(%rax,%rax,1)
   16042:	66 2e 0f 1f 84 00 00 00 00 00 	cs nopw 0x0(%rax,%rax,1)
   1604c:	66 2e 0f 1f 84 00 00 00 00 00 	cs nopw 0x0(%rax,%rax,1)
   16056:	66 2e 0f 1f 84 00 00 00 00 00 	cs nopw 0x0(%rax,%rax,1)
   16060:	66 2e 0f 1f 84 00 00 00 00 00 	cs nopw 0x0(%rax,%rax,1)
   1606a:	66 2e 0f 1f 84 00 00 00 00 00 	cs nopw 0x0(%rax,%rax,1)
   16074:	66 2e 0f 1f 84 00 00 00 00 00 	cs nopw 0x0(%rax,%rax,1)
   1607e:	66 2e 0f 1f 84 00 00 00 00 00 	cs nopw 0x0(%rax,%rax,1)
   16088:	66 2e 0f 1f 84 00 00 00 00 00 	cs nopw 0x0(%rax,%rax,1)
   16092:	66 2e 0f 1f 84 00 00 00 00 00 	cs nopw 0x0(%rax,%rax,1)
   1609c:	66 2e 0f 1f 84 00 00 00 00 00 	cs nopw 0x0(%rax,%rax,1)
   160a6:	66 2e 0f 1f 84 00 00 00 00 00 	cs nopw 0x0(%rax,%rax,1)
   160b0:	66 2e 0f 1f 84 00 00 00 00 00 	cs nopw 0x0(%rax,%rax,1)
   160ba:	66 2e 0f 1f 84 00 00 00 00 00 	cs nopw 0x0(%rax,%rax,1)
   160c4:	66 2e 0f 1f 84 00 00 00 00 00 	cs nopw 0x0(%rax,%rax,1)
   160ce:	66 2e 0f 1f 84 00 00 00 00 00 	cs nopw 0x0(%rax,%rax,1)
   160d8:	66 2e 0f 1f 84 00 00 00 00 00 	cs nopw 0x0(%rax,%rax,1)
   160e2:	66 2e 0f 1f 84 00 00 00 00 00 	cs nopw 0x0(%rax,%rax,1)
   160ec:	66 2e 0f 1f 84 00 00 00 00 00 	cs nopw 0x0(%rax,%rax,1)
   160f6:	66 2e 0f 1f 84 00 00 00 00 00 	cs nopw 0x0(%rax,%rax,1)
   16100:	66 2e 0f 1f 84 00 00 00 00 00 	cs nopw 0x0(%rax,%rax,1)
   1610a:	66 2e 0f 1f 84 00 00 00 00 00 	cs nopw 0x0(%rax,%rax,1)
   16114:	66 2e 0f 1f 84 00 00 00 00 00 	cs nopw 0x0(%rax,%rax,1)
   1611e:	66 2e 0f 1f 84 00 00 00 00 00 	cs nopw 0x0(%rax,%rax,1)
   16128:	66 2e 0f 1f 84 00 00 00 00 00 	cs nopw 0x0(%rax,%rax,1)
   16132:	66 2e 0f 1f 84 00 00 00 00 00 	cs nopw 0x0(%rax,%rax,1)
   1613c:	66 2e 0f 1f 84 00 00 00 00 00 	cs nopw 0x0(%rax,%rax,1)
   16146:	66 2e 0f 1f 84 00 00 00 00 00 	cs nopw 0x0(%rax,%rax,1)
   16150:	66 2e 0f 1f 84 00 00 00 00 00 	cs nopw 0x0(%rax,%rax,1)
   1615a:	66 2e 0f 1f 84 00 00 00 00 00 	cs nopw 0x0(%rax,%rax,1)
   16164:	66 2e 0f 1f 84 00 00 00 00 00 	cs nopw 0x0(%rax,%rax,1)
   1616e:	66 2e 0f 1f 84 00 00 00 00 00 	cs nopw 0x0(%rax,%rax,1)
   16178:	66 2e 0f 1f 84 00 00 00 00 00 	cs nopw 0x0(%rax,%rax,1)
   16182:	66 2e 0f 1f 84 00 00 00 00 00 	cs nopw 0x0(%rax,%rax,1)
   1618c:	66 2e 0f 1f 84 00 00 00 00 00 	cs nopw 0x0(%rax,%rax,1)
   16196:	66 2e 0f 1f 84 00 00 00 00 00 	cs nopw 0x0(%rax,%rax,1)
   161a0:	66 2e 0f 1f 84 00 00 00 00 00 	cs nopw 0x0(%rax,%rax,1)
   161aa:	66 2e 0f 1f 84 00 00 00 00 00 	cs nopw 0x0(%rax,%rax,1)
   161b4:	66 2e 0f 1f 84 00 00 00 00 00 	cs nopw 0x0(%rax,%rax,1)
   161be:	66 2e 0f 1f 84 00 00 00 00 00 	cs nopw 0x0(%rax,%rax,1)
   161c8:	66 2e 0f 1f 84 00 00 00 00 00 	cs nopw 0x0(%rax,%rax,1)
   161d2:	66 2e 0f 1f 84 00 00 00 00 00 	cs nopw 0x0(%rax,%rax,1)
   161dc:	66 2e 0f 1f 84 00 00 00 00 00 	cs nopw 0x0(%rax,%rax,1)
   161e6:	66 2e 0f 1f 84 00 00 00 00 00 	cs nopw 0x0(%rax,%rax,1)
   161f0:	66 2e 0f 1f 84 00 00 00 00 00 	cs nopw 0x0(%rax,%rax,1)
   161fa:	66 2e 0f 1f 84 00 00 00 00 00 	cs nopw 0x0(%rax,%rax,1)
   16204:	66 2e 0f 1f 84 00 00 00 00 00 	cs nopw 0x0(%rax,%rax,1)
   1620e:	66 2e 0f 1f 84 00 00 00 00 00 	cs nopw 0x0(%rax,%rax,1)
   16218:	66 2e 0f 1f 84 00 00 00 00 00 	cs nopw 0x0(%rax,%rax,1)
   16222:	66 2e 0f 1f 84 00 00 00 00 00 	cs nopw 0x0(%rax,%rax,1)
   1622c:	66 2e 0f 1f 84 00 00 00 00 00 	cs nopw 0x0(%rax,%rax,1)
   16236:	66 2e 0f 1f 84 00 00 00 00 00 	cs nopw 0x0(%rax,%rax,1)
   16240:	66 2e 0f 1f 84 00 00 00 00 00 	cs nopw 0x0(%rax,%rax,1)
   1624a:	66 2e 0f 1f 84 00 00 00 00 00 	cs nopw 0x0(%rax,%rax,1)
   16254:	66 2e 0f 1f 84 00 00 00 00 00 	cs nopw 0x0(%rax,%rax,1)
   1625e:	66 2e 0f 1f 84 00 00 00 00 00 	cs nopw 0x0(%rax,%rax,1)
   16268:	66 2e 0f 1f 84 00 00 00 00 00 	cs nopw 0x0(%rax,%rax,1)
   16272:	66 2e 0f 1f 84 00 00 00 00 00 	cs nopw 0x0(%rax,%rax,1)
   1627c:	66 2e 0f 1f 84 00 00 00 00 00 	cs nopw 0x0(%rax,%rax,1)
   16286:	66 2e 0f 1f 84 00 00 00 00 00 	cs nopw 0x0(%rax,%rax,1)
   16290:	66 2e 0f 1f 84 00 00 00 00 00 	cs nopw 0x0(%rax,%rax,1)
   1629a:	66 2e 0f 1f 84 00 00 00 00 00 	cs nopw 0x0(%rax,%rax,1)
   162a4:	66 2e 0f 1f 84 00 00 00 00 00 	cs nopw 0x0(%rax,%rax,1)
   162ae:	66 2e 0f 1f 84 00 00 00 00 00 	cs nopw 0x0(%rax,%rax,1)
   162b8:	66 2e 0f 1f 84 00 00 00 00 00 	cs nopw 0x0(%rax,%rax,1)
   162c2:	66 2e 0f 1f 84 00 00 00 00 00 	cs nopw 0x0(%rax,%rax,1)
   162cc:	66 2e 0f 1f 84 00 00 00 00 00 	cs nopw 0x0(%rax,%rax,1)
   162d6:	66 2e 0f 1f 84 00 00 00 00 00 	cs nopw 0x0(%rax,%rax,1)
   162e0:	66 2e 0f 1f 84 00 00 00 00 00 	cs nopw 0x0(%rax,%rax,1)
   162ea:	66 2e 0f 1f 84 00 00 00 00 00 	cs nopw 0x0(%rax,%rax,1)
   162f4:	66 2e 0f 1f 84 00 00 00 00 00 	cs nopw 0x0(%rax,%rax,1)
   162fe:	66 2e 0f 1f 84 00 00 00 00 00 	cs nopw 0x0(%rax,%rax,1)
   16308:	66 2e 0f 1f 84 00 00 00 00 00 	cs nopw 0x0(%rax,%rax,1)
   16312:	66 2e 0f 1f 84 00 00 00 00 00 	cs nopw 0x0(%rax,%rax,1)
   1631c:	66 2e 0f 1f 84 00 00 00 00 00 	cs nopw 0x0(%rax,%rax,1)
   16326:	66 2e 0f 1f 84 00 00 00 00 00 	cs nopw 0x0(%rax,%rax,1)
   16330:	66 2e 0f 1f 84 00 00 00 00 00 	cs nopw 0x0(%rax,%rax,1)
   1633a:	66 2e 0f 1f 84 00 00 00 00 00 	cs nopw 0x0(%rax,%rax,1)
   16344:	66 2e 0f 1f 84 00 00 00 00 00 	cs nopw 0x0(%rax,%rax,1)
   1634e:	66 2e 0f 1f 84 00 00 00 00 00 	cs nopw 0x0(%rax,%rax,1)
   16358:	66 2e 0f 1f 84 00 00 00 00 00 	cs nopw 0x0(%rax,%rax,1)
   16362:	66 2e 0f 1f 84 00 00 00 00 00 	cs nopw 0x0(%rax,%rax,1)
   1636c:	66 2e 0f 1f 84 00 00 00 00 00 	cs nopw 0x0(%rax,%rax,1)
   16376:	66 2e 0f 1f 84 00 00 00 00 00 	cs nopw 0x0(%rax,%rax,1)
   16380:	66 2e 0f 1f 84 00 00 00 00 00 	cs nopw 0x0(%rax,%rax,1)
   1638a:	66 2e 0f 1f 84 00 00 00 00 00 	cs nopw 0x0(%rax,%rax,1)
   16394:	66 2e 0f 1f 84 00 00 00 00 00 	cs nopw 0x0(%rax,%rax,1)
   1639e:	66 2e 0f 1f 84 00 00 00 00 00 	cs nopw 0x0(%rax,%rax,1)
   163a8:	66 2e 0f 1f 84 00 00 00 00 00 	cs nopw 0x0(%rax,%rax,1)
   163b2:	66 2e 0f 1f 84 00 00 00 00 00 	cs nopw 0x0(%rax,%rax,1)
   163bc:	66 2e 0f 1f 84 00 00 00 00 00 	cs nopw 0x0(%rax,%rax,1)
   163c6:	66 2e 0f 1f 84 00 00 00 00 00 	cs nopw 0x0(%rax,%rax,1)
   163d0:	66 2e 0f 1f 84 00 00 00 00 00 	cs nopw 0x0(%rax,%rax,1)
   163da:	66 2e 0f 1f 84 00 00 00 00 00 	cs nopw 0x0(%rax,%rax,1)
   163e4:	66 2e 0f 1f 84 00 00 00 00 00 	cs nopw 0x0(%rax,%rax,1)
   163ee:	66 2e 0f 1f 84 00 00 00 00 00 	cs nopw 0x0(%rax,%rax,1)
   163f8:	66 2e 0f 1f 84 00 00 00 00 00 	cs nopw 0x0(%rax,%rax,1)
   16402:	66 2e 0f 1f 84 00 00 00 00 00 	cs nopw 0x0(%rax,%rax,1)
   1640c:	66 2e 0f 1f 84 00 00 00 00 00 	cs nopw 0x0(%rax,%rax,1)
   16416:	66 2e 0f 1f 84 00 00 00 00 00 	cs nopw 0x0(%rax,%rax,1)
   16420:	66 2e 0f 1f 84 00 00 00 00 00 	cs nopw 0x0(%rax,%rax,1)
   1642a:	66 2e 0f 1f 84 00 00 00 00 00 	cs nopw 0x0(%rax,%rax,1)
   16434:	66 2e 0f 1f 84 00 00 00 00 00 	cs nopw 0x0(%rax,%rax,1)
   1643e:	66 2e 0f 1f 84 00 00 00 00 00 	cs nopw 0x0(%rax,%rax,1)
   16448:	66 2e 0f 1f 84 00 00 00 00 00 	cs nopw 0x0(%rax,%rax,1)
   16452:	66 2e 0f 1f 84 00 00 00 00 00 	cs nopw 0x0(%rax,%rax,1)
   1645c:	66 2e 0f 1f 84 00 00 00 00 00 	cs nopw 0x0(%rax,%rax,1)
   16466:	66 2e 0f 1f 84 00 00 00 00 00 	cs nopw 0x0(%rax,%rax,1)
   16470:	66 2e 0f 1f 84 00 00 00 00 00 	cs nopw 0x0(%rax,%rax,1)
   1647a:	66 2e 0f 1f 84 00 00 00 00 00 	cs nopw 0x0(%rax,%rax,1)
   16484:	66 2e 0f 1f 84 00 00 00 00 00 	cs nopw 0x0(%rax,%rax,1)
   1648e:	66 2e 0f 1f 84 00 00 00 00 00 	cs nopw 0x0(%rax,%rax,1)
   16498:	66 2e 0f 1f 84 00 00 00 00 00 	cs nopw 0x0(%rax,%rax,1)
   164a2:	66 2e 0f 1f 84 00 00 00 00 00 	cs nopw 0x0(%rax,%rax,1)
   164ac:	66 2e 0f 1f 84 00 00 00 00 00 	cs nopw 0x0(%rax,%rax,1)
   164b6:	66 2e 0f 1f 84 00 00 00 00 00 	cs nopw 0x0(%rax,%rax,1)
   164c0:	66 2e 0f 1f 84 00 00 00 00 00 	cs nopw 0x0(%rax,%rax,1)
   164ca:	66 2e 0f 1f 84 00 00 00 00 00 	cs nopw 0x0(%rax,%rax,1)
   164d4:	66 2e 0f 1f 84 00 00 00 00 00 	cs nopw 0x0(%rax,%rax,1)
   164de:	66 2e 0f 1f 84 00 00 00 00 00 	cs nopw 0x0(%rax,%rax,1)
   164e8:	66 2e 0f 1f 84 00 00 00 00 00 	cs nopw 0x0(%rax,%rax,1)
   164f2:	66 2e 0f 1f 84 00 00 00 00 00 	cs nopw 0x0(%rax,%rax,1)
   164fc:	66 2e 0f 1f 84 00 00 00 00 00 	cs nopw 0x0(%rax,%rax,1)
   16506:	66 2e 0f 1f 84 00 00 00 00 00 	cs nopw 0x0(%rax,%rax,1)
   16510:	66 2e 0f 1f 84 00 00 00 00 00 	cs nopw 0x0(%rax,%rax,1)
   1651a:	66 2e 0f 1f 84 00 00 00 00 00 	cs nopw 0x0(%rax,%rax,1)
   16524:	66 2e 0f 1f 84 00 00 00 00 00 	cs nopw 0x0(%rax,%rax,1)
   1652e:	66 2e 0f 1f 84 00 00 00 00 00 	cs nopw 0x0(%rax,%rax,1)
   16538:	66 2e 0f 1f 84 00 00 00 00 00 	cs nopw 0x0(%rax,%rax,1)
   16542:	66 2e 0f 1f 84 00 00 00 00 00 	cs nopw 0x0(%rax,%rax,1)
   1654c:	66 2e 0f 1f 84 00 00 00 00 00 	cs nopw 0x0(%rax,%rax,1)
   16556:	66 2e 0f 1f 84 00 00 00 00 00 	cs nopw 0x0(%rax,%rax,1)
   16560:	66 2e 0f 1f 84 00 00 00 00 00 	cs nopw 0x0(%rax,%rax,1)
   1656a:	66 2e 0f 1f 84 00 00 00 00 00 	cs nopw 0x0(%rax,%rax,1)
   16574:	66 2e 0f 1f 84 00 00 00 00 00 	cs nopw 0x0(%rax,%rax,1)
   1657e:	66 2e 0f 1f 84 00 00 00 00 00 	cs nopw 0x0(%rax,%rax,1)
   16588:	66 2e 0f 1f 84 00 00 00 00 00 	cs nopw 0x0(%rax,%rax,1)
   16592:	66 2e 0f 1f 84 00 00 00 00 00 	cs nopw 0x0(%rax,%rax,1)
   1659c:	66 2e 0f 1f 84 00 00 00 00 00 	cs nopw 0x0(%rax,%rax,1)
   165a6:	66 2e 0f 1f 84 00 00 00 00 00 	cs nopw 0x0(%rax,%rax,1)
   165b0:	66 2e 0f 1f 84 00 00 00 00 00 	cs nopw 0x0(%rax,%rax,1)
   165ba:	66 2e 0f 1f 84 00 00 00 00 00 	cs nopw 0x0(%rax,%rax,1)
   165c4:	66 2e 0f 1f 84 00 00 00 00 00 	cs nopw 0x0(%rax,%rax,1)
   165ce:	66 2e 0f 1f 84 00 00 00 00 00 	cs nopw 0x0(%rax,%rax,1)
   165d8:	66 2e 0f 1f 84 00 00 00 00 00 	cs nopw 0x0(%rax,%rax,1)
   165e2:	66 2e 0f 1f 84 00 00 00 00 00 	cs nopw 0x0(%rax,%rax,1)
   165ec:	66 2e 0f 1f 84 00 00 00 00 00 	cs nopw 0x0(%rax,%rax,1)
   165f6:	66 2e 0f 1f 84 00 00 00 00 00 	cs nopw 0x0(%rax,%rax,1)
   16600:	66 2e 0f 1f 84 00 00 00 00 00 	cs nopw 0x0(%rax,%rax,1)
   1660a:	66 2e 0f 1f 84 00 00 00 00 00 	cs nopw 0x0(%rax,%rax,1)
   16614:	66 2e 0f 1f 84 00 00 00 00 00 	cs nopw 0x0(%rax,%rax,1)
   1661e:	66 2e 0f 1f 84 00 00 00 00 00 	cs nopw 0x0(%rax,%rax,1)
   16628:	66 2e 0f 1f 84 00 00 00 00 00 	cs nopw 0x0(%rax,%rax,1)
   16632:	66 2e 0f 1f 84 00 00 00 00 00 	cs nopw 0x0(%rax,%rax,1)
   1663c:	66 2e 0f 1f 84 00 00 00 00 00 	cs nopw 0x0(%rax,%rax,1)
   16646:	66 2e 0f 1f 84 00 00 00 00 00 	cs nopw 0x0(%rax,%rax,1)
   16650:	66 2e 0f 1f 84 00 00 00 00 00 	cs nopw 0x0(%rax,%rax,1)
   1665a:	66 2e 0f 1f 84 00 00 00 00 00 	cs nopw 0x0(%rax,%rax,1)
   16664:	66 2e 0f 1f 84 00 00 00 00 00 	cs nopw 0x0(%rax,%rax,1)
   1666e:	66 2e 0f 1f 84 00 00 00 00 00 	cs nopw 0x0(%rax,%rax,1)
   16678:	66 2e 0f 1f 84 00 00 00 00 00 	cs nopw 0x0(%rax,%rax,1)
   16682:	66 2e 0f 1f 84 00 00 00 00 00 	cs nopw 0x0(%rax,%rax,1)
   1668c:	66 2e 0f 1f 84 00 00 00 00 00 	cs nopw 0x0(%rax,%rax,1)
   16696:	66 2e 0f 1f 84 00 00 00 00 00 	cs nopw 0x0(%rax,%rax,1)
   166a0:	66 2e 0f 1f 84 00 00 00 00 00 	cs nopw 0x0(%rax,%rax,1)
   166aa:	66 2e 0f 1f 84 00 00 00 00 00 	cs nopw 0x0(%rax,%rax,1)
   166b4:	66 2e 0f 1f 84 00 00 00 00 00 	cs nopw 0x0(%rax,%rax,1)
   166be:	66 2e 0f 1f 84 00 00 00 00 00 	cs nopw 0x0(%rax,%rax,1)
   166c8:	66 2e 0f 1f 84 00 00 00 00 00 	cs nopw 0x0(%rax,%rax,1)
   166d2:	66 2e 0f 1f 84 00 00 00 00 00 	cs nopw 0x0(%rax,%rax,1)
   166dc:	66 2e 0f 1f 84 00 00 00 00 00 	cs nopw 0x0(%rax,%rax,1)
   166e6:	66 2e 0f 1f 84 00 00 00 00 00 	cs nopw 0x0(%rax,%rax,1)
   166f0:	66 2e 0f 1f 84 00 00 00 00 00 	cs nopw 0x0(%rax,%rax,1)
   166fa:	66 2e 0f 1f 84 00 00 00 00 00 	cs nopw 0x0(%rax,%rax,1)
   16704:	66 2e 0f 1f 84 00 00 00 00 00 	cs nopw 0x0(%rax,%rax,1)
   1670e:	66 2e 0f 1f 84 00 00 00 00 00 	cs nopw 0x0(%rax,%rax,1)
   16718:	66 2e 0f 1f 84 00 00 00 00 00 	cs nopw 0x0(%rax,%rax,1)
   16722:	66 2e 0f 1f 84 00 00 00 00 00 	cs nopw 0x0(%rax,%rax,1)
   1672c:	66 2e 0f 1f 84 00 00 00 00 00 	cs nopw 0x0(%rax,%rax,1)
   16736:	66 2e 0f 1f 84 00 00 00 00 00 	cs nopw 0x0(%rax,%rax,1)
   16740:	66 2e 0f 1f 84 00 00 00 00 00 	cs nopw 0x0(%rax,%rax,1)
   1674a:	66 2e 0f 1f 84 00 00 00 00 00 	cs nopw 0x0(%rax,%rax,1)
   16754:	66 2e 0f 1f 84 00 00 00 00 00 	cs nopw 0x0(%rax,%rax,1)
   1675e:	66 2e 0f 1f 84 00 00 00 00 00 	cs nopw 0x0(%rax,%rax,1)
   16768:	66 2e 0f 1f 84 00 00 00 00 00 	cs nopw 0x0(%rax,%rax,1)
   16772:	66 2e 0f 1f 84 00 00 00 00 00 	cs nopw 0x0(%rax,%rax,1)
   1677c:	66 2e 0f 1f 84 00 00 00 00 00 	cs nopw 0x0(%rax,%rax,1)
   16786:	66 2e 0f 1f 84 00 00 00 00 00 	cs nopw 0x0(%rax,%rax,1)
   16790:	66 2e 0f 1f 84 00 00 00 00 00 	cs nopw 0x0(%rax,%rax,1)
   1679a:	66 2e 0f 1f 84 00 00 00 00 00 	cs nopw 0x0(%rax,%rax,1)
   167a4:	66 2e 0f 1f 84 00 00 00 00 00 	cs nopw 0x0(%rax,%rax,1)
   167ae:	66 2e 0f 1f 84 00 00 00 00 00 	cs nopw 0x0(%rax,%rax,1)
   167b8:	66 2e 0f 1f 84 00 00 00 00 00 	cs nopw 0x0(%rax,%rax,1)
   167c2:	66 2e 0f 1f 84 00 00 00 00 00 	cs nopw 0x0(%rax,%rax,1)
   167cc:	66 2e 0f 1f 84 00 00 00 00 00 	cs nopw 0x0(%rax,%rax,1)
   167d6:	66 2e 0f 1f 84 00 00 00 00 00 	cs nopw 0x0(%rax,%rax,1)
   167e0:	66 2e 0f 1f 84 00 00 00 00 00 	cs nopw 0x0(%rax,%rax,1)
   167ea:	66 2e 0f 1f 84 00 00 00 00 00 	cs nopw 0x0(%rax,%rax,1)
   167f4:	66 2e 0f 1f 84 00 00 00 00 00 	cs nopw 0x0(%rax,%rax,1)
   167fe:	66 2e 0f 1f 84 00 00 00 00 00 	cs nopw 0x0(%rax,%rax,1)
   16808:	66 2e 0f 1f 84 00 00 00 00 00 	cs nopw 0x0(%rax,%rax,1)
   16812:	66 2e 0f 1f 84 00 00 00 00 00 	cs nopw 0x0(%rax,%rax,1)
   1681c:	66 2e 0f 1f 84 00 00 00 00 00 	cs nopw 0x0(%rax,%rax,1)
   16826:	66 2e 0f 1f 84 00 00 00 00 00 	cs nopw 0x0(%rax,%rax,1)
   16830:	66 2e 0f 1f 84 00 00 00 00 00 	cs nopw 0x0(%rax,%rax,1)
   1683a:	66 2e 0f 1f 84 00 00 00 00 00 	cs nopw 0x0(%rax,%rax,1)
   16844:	66 2e 0f 1f 84 00 00 00 00 00 	cs nopw 0x0(%rax,%rax,1)
   1684e:	66 2e 0f 1f 84 00 00 00 00 00 	cs nopw 0x0(%rax,%rax,1)
   16858:	66 2e 0f 1f 84 00 00 00 00 00 	cs nopw 0x0(%rax,%rax,1)
   16862:	66 2e 0f 1f 84 00 00 00 00 00 	cs nopw 0x0(%rax,%rax,1)
   1686c:	66 2e 0f 1f 84 00 00 00 00 00 	cs nopw 0x0(%rax,%rax,1)
   16876:	66 2e 0f 1f 84 00 00 00 00 00 	cs nopw 0x0(%rax,%rax,1)
   16880:	66 2e 0f 1f 84 00 00 00 00 00 	cs nopw 0x0(%rax,%rax,1)
   1688a:	66 2e 0f 1f 84 00 00 00 00 00 	cs nopw 0x0(%rax,%rax,1)
   16894:	66 2e 0f 1f 84 00 00 00 00 00 	cs nopw 0x0(%rax,%rax,1)
   1689e:	66 2e 0f 1f 84 00 00 00 00 00 	cs nopw 0x0(%rax,%rax,1)
   168a8:	66 2e 0f 1f 84 00 00 00 00 00 	cs nopw 0x0(%rax,%rax,1)
   168b2:	66 2e 0f 1f 84 00 00 00 00 00 	cs nopw 0x0(%rax,%rax,1)
   168bc:	66 2e 0f 1f 84 00 00 00 00 00 	cs nopw 0x0(%rax,%rax,1)
   168c6:	66 2e 0f 1f 84 00 00 00 00 00 	cs nopw 0x0(%rax,%rax,1)
   168d0:	66 2e 0f 1f 84 00 00 00 00 00 	cs nopw 0x0(%rax,%rax,1)
   168da:	66 2e 0f 1f 84 00 00 00 00 00 	cs nopw 0x0(%rax,%rax,1)
   168e4:	66 2e 0f 1f 84 00 00 00 00 00 	cs nopw 0x0(%rax,%rax,1)
   168ee:	66 2e 0f 1f 84 00 00 00 00 00 	cs nopw 0x0(%rax,%rax,1)
   168f8:	66 2e 0f 1f 84 00 00 00 00 00 	cs nopw 0x0(%rax,%rax,1)
   16902:	66 2e 0f 1f 84 00 00 00 00 00 	cs nopw 0x0(%rax,%rax,1)
   1690c:	66 2e 0f 1f 84 00 00 00 00 00 	cs nopw 0x0(%rax,%rax,1)
   16916:	66 2e 0f 1f 84 00 00 00 00 00 	cs nopw 0x0(%rax,%rax,1)
   16920:	66 2e 0f 1f 84 00 00 00 00 00 	cs nopw 0x0(%rax,%rax,1)
   1692a:	66 2e 0f 1f 84 00 00 00 00 00 	cs nopw 0x0(%rax,%rax,1)
   16934:	66 2e 0f 1f 84 00 00 00 00 00 	cs nopw 0x0(%rax,%rax,1)
   1693e:	66 2e 0f 1f 84 00 00 00 00 00 	cs nopw 0x0(%rax,%rax,1)
   16948:	66 2e 0f 1f 84 00 00 00 00 00 	cs nopw 0x0(%rax,%rax,1)
   16952:	66 2e 0f 1f 84 00 00 00 00 00 	cs nopw 0x0(%rax,%rax,1)
   1695c:	66 2e 0f 1f 84 00 00 00 00 00 	cs nopw 0x0(%rax,%rax,1)
   16966:	66 2e 0f 1f 84 00 00 00 00 00 	cs nopw 0x0(%rax,%rax,1)
   16970:	66 2e 0f 1f 84 00 00 00 00 00 	cs nopw 0x0(%rax,%rax,1)
   1697a:	66 2e 0f 1f 84 00 00 00 00 00 	cs nopw 0x0(%rax,%rax,1)
   16984:	66 2e 0f 1f 84 00 00 00 00 00 	cs nopw 0x0(%rax,%rax,1)
   1698e:	66 2e 0f 1f 84 00 00 00 00 00 	cs nopw 0x0(%rax,%rax,1)
   16998:	66 2e 0f 1f 84 00 00 00 00 00 	cs nopw 0x0(%rax,%rax,1)
   169a2:	66 2e 0f 1f 84 00 00 00 00 00 	cs nopw 0x0(%rax,%rax,1)
   169ac:	66 2e 0f 1f 84 00 00 00 00 00 	cs nopw 0x0(%rax,%rax,1)
   169b6:	66 2e 0f 1f 84 00 00 00 00 00 	cs nopw 0x0(%rax,%rax,1)
   169c0:	66 2e 0f 1f 84 00 00 00 00 00 	cs nopw 0x0(%rax,%rax,1)
   169ca:	66 2e 0f 1f 84 00 00 00 00 00 	cs nopw 0x0(%rax,%rax,1)
   169d4:	66 2e 0f 1f 84 00 00 00 00 00 	cs nopw 0x0(%rax,%rax,1)
   169de:	66 2e 0f 1f 84 00 00 00 00 00 	cs nopw 0x0(%rax,%rax,1)
   169e8:	66 2e 0f 1f 84 00 00 00 00 00 	cs nopw 0x0(%rax,%rax,1)
   169f2:	66 2e 0f 1f 84 00 00 00 00 00 	cs nopw 0x0(%rax,%rax,1)
   169fc:	66 2e 0f 1f 84 00 00 00 00 00 	cs nopw 0x0(%rax,%rax,1)
   16a06:	66 2e 0f 1f 84 00 00 00 00 00 	cs nopw 0x0(%rax,%rax,1)
   16a10:	66 2e 0f 1f 84 00 00 00 00 00 	cs nopw 0x0(%rax,%rax,1)
   16a1a:	66 2e 0f 1f 84 00 00 00 00 00 	cs nopw 0x0(%rax,%rax,1)
   16a24:	66 2e 0f 1f 84 00 00 00 00 00 	cs nopw 0x0(%rax,%rax,1)
   16a2e:	66 2e 0f 1f 84 00 00 00 00 00 	cs nopw 0x0(%rax,%rax,1)
   16a38:	66 2e 0f 1f 84 00 00 00 00 00 	cs nopw 0x0(%rax,%rax,1)
   16a42:	66 2e 0f 1f 84 00 00 00 00 00 	cs nopw 0x0(%rax,%rax,1)
   16a4c:	66 2e 0f 1f 84 00 00 00 00 00 	cs nopw 0x0(%rax,%rax,1)
   16a56:	66 2e 0f 1f 84 00 00 00 00 00 	cs nopw 0x0(%rax,%rax,1)
   16a60:	66 2e 0f 1f 84 00 00 00 00 00 	cs nopw 0x0(%rax,%rax,1)
   16a6a:	66 2e 0f 1f 84 00 00 00 00 00 	cs nopw 0x0(%rax,%rax,1)
   16a74:	66 2e 0f 1f 84 00 00 00 00 00 	cs nopw 0x0(%rax,%rax,1)
   16a7e:	66 2e 0f 1f 84 00 00 00 00 00 	cs nopw 0x0(%rax,%rax,1)
   16a88:	66 2e 0f 1f 84 00 00 00 00 00 	cs nopw 0x0(%rax,%rax,1)
   16a92:	66 2e 0f 1f 84 00 00 00 00 00 	cs nopw 0x0(%rax,%rax,1)
   16a9c:	66 2e 0f 1f 84 00 00 00 00 00 	cs nopw 0x0(%rax,%rax,1)
   16aa6:	66 2e 0f 1f 84 00 00 00 00 00 	cs nopw 0x0(%rax,%rax,1)
   16ab0:	66 2e 0f 1f 84 00 00 00 00 00 	cs nopw 0x0(%rax,%rax,1)
   16aba:	66 2e 0f 1f 84 00 00 00 00 00 	cs nopw 0x0(%rax,%rax,1)
   16ac4:	66 2e 0f 1f 84 00 00 00 00 00 	cs nopw 0x0(%rax,%rax,1)
   16ace:	66 2e 0f 1f 84 00 00 00 00 00 	cs nopw 0x0(%rax,%rax,1)
   16ad8:	66 2e 0f 1f 84 00 00 00 00 00 	cs nopw 0x0(%rax,%rax,1)
   16ae2:	66 2e 0f 1f 84 00 00 00 00 00 	cs nopw 0x0(%rax,%rax,1)
   16aec:	66 2e 0f 1f 84 00 00 00 00 00 	cs nopw 0x0(%rax,%rax,1)
   16af6:	66 2e 0f 1f 84 00 00 00 00 00 	cs nopw 0x0(%rax,%rax,1)
   16b00:	66 2e 0f 1f 84 00 00 00 00 00 	cs nopw 0x0(%rax,%rax,1)
   16b0a:	66 2e 0f 1f 84 00 00 00 00 00 	cs nopw 0x0(%rax,%rax,1)
   16b14:	66 2e 0f 1f 84 00 00 00 00 00 	cs nopw 0x0(%rax,%rax,1)
   16b1e:	66 2e 0f 1f 84 00 00 00 00 00 	cs nopw 0x0(%rax,%rax,1)
   16b28:	66 2e 0f 1f 84 00 00 00 00 00 	cs nopw 0x0(%rax,%rax,1)
   16b32:	66 2e 0f 1f 84 00 00 00 00 00 	cs nopw 0x0(%rax,%rax,1)
   16b3c:	66 2e 0f 1f 84 00 00 00 00 00 	cs nopw 0x0(%rax,%rax,1)
   16b46:	66 2e 0f 1f 84 00 00 00 00 00 	cs nopw 0x0(%rax,%rax,1)
   16b50:	66 2e 0f 1f 84 00 00 00 00 00 	cs nopw 0x0(%rax,%rax,1)
   16b5a:	66 2e 0f 1f 84 00 00 00 00 00 	cs nopw 0x0(%rax,%rax,1)
   16b64:	66 2e 0f 1f 84 00 00 00 00 00 	cs nopw 0x0(%rax,%rax,1)
   16b6e:	66 2e 0f 1f 84 00 00 00 00 00 	cs nopw 0x0(%rax,%rax,1)
   16b78:	66 2e 0f 1f 84 00 00 00 00 00 	cs nopw 0x0(%rax,%rax,1)
   16b82:	66 2e 0f 1f 84 00 00 00 00 00 	cs nopw 0x0(%rax,%rax,1)
   16b8c:	66 2e 0f 1f 84 00 00 00 00 00 	cs nopw 0x0(%rax,%rax,1)
   16b96:	66 2e 0f 1f 84 00 00 00 00 00 	cs nopw 0x0(%rax,%rax,1)
   16ba0:	66 2e 0f 1f 84 00 00 00 00 00 	cs nopw 0x0(%rax,%rax,1)
   16baa:	66 2e 0f 1f 84 00 00 00 00 00 	cs nopw 0x0(%rax,%rax,1)
   16bb4:	66 2e 0f 1f 84 00 00 00 00 00 	cs nopw 0x0(%rax,%rax,1)
   16bbe:	66 2e 0f 1f 84 00 00 00 00 00 	cs nopw 0x0(%rax,%rax,1)
   16bc8:	66 2e 0f 1f 84 00 00 00 00 00 	cs nopw 0x0(%rax,%rax,1)
   16bd2:	66 2e 0f 1f 84 00 00 00 00 00 	cs nopw 0x0(%rax,%rax,1)
   16bdc:	66 2e 0f 1f 84 00 00 00 00 00 	cs nopw 0x0(%rax,%rax,1)
   16be6:	66 2e 0f 1f 84 00 00 00 00 00 	cs nopw 0x0(%rax,%rax,1)
   16bf0:	66 2e 0f 1f 84 00 00 00 00 00 	cs nopw 0x0(%rax,%rax,1)
   16bfa:	66 2e 0f 1f 84 00 00 00 00 00 	cs nopw 0x0(%rax,%rax,1)
   16c04:	66 2e 0f 1f 84 00 00 00 00 00 	cs nopw 0x0(%rax,%rax,1)
   16c0e:	66 2e 0f 1f 84 00 00 00 00 00 	cs nopw 0x0(%rax,%rax,1)
   16c18:	66 2e 0f 1f 84 00 00 00 00 00 	cs nopw 0x0(%rax,%rax,1)
   16c22:	66 2e 0f 1f 84 00 00 00 00 00 	cs nopw 0x0(%rax,%rax,1)
   16c2c:	66 2e 0f 1f 84 00 00 00 00 00 	cs nopw 0x0(%rax,%rax,1)
   16c36:	66 2e 0f 1f 84 00 00 00 00 00 	cs nopw 0x0(%rax,%rax,1)
   16c40:	66 2e 0f 1f 84 00 00 00 00 00 	cs nopw 0x0(%rax,%rax,1)
   16c4a:	66 2e 0f 1f 84 00 00 00 00 00 	cs nopw 0x0(%rax,%rax,1)
   16c54:	66 2e 0f 1f 84 00 00 00 00 00 	cs nopw 0x0(%rax,%rax,1)
   16c5e:	66 2e 0f 1f 84 00 00 00 00 00 	cs nopw 0x0(%rax,%rax,1)
   16c68:	66 2e 0f 1f 84 00 00 00 00 00 	cs nopw 0x0(%rax,%rax,1)
   16c72:	66 2e 0f 1f 84 00 00 00 00 00 	cs nopw 0x0(%rax,%rax,1)
   16c7c:	66 2e 0f 1f 84 00 00 00 00 00 	cs nopw 0x0(%rax,%rax,1)
   16c86:	66 2e 0f 1f 84 00 00 00 00 00 	cs nopw 0x0(%rax,%rax,1)
   16c90:	66 2e 0f 1f 84 00 00 00 00 00 	cs nopw 0x0(%rax,%rax,1)
   16c9a:	66 2e 0f 1f 84 00 00 00 00 00 	cs nopw 0x0(%rax,%rax,1)
   16ca4:	66 2e 0f 1f 84 00 00 00 00 00 	cs nopw 0x0(%rax,%rax,1)
   16cae:	66 2e 0f 1f 84 00 00 00 00 00 	cs nopw 0x0(%rax,%rax,1)
   16cb8:	66 2e 0f 1f 84 00 00 00 00 00 	cs nopw 0x0(%rax,%rax,1)
   16cc2:	66 2e 0f 1f 84 00 00 00 00 00 	cs nopw 0x0(%rax,%rax,1)
   16ccc:	66 2e 0f 1f 84 00 00 00 00 00 	cs nopw 0x0(%rax,%rax,1)
   16cd6:	66 2e 0f 1f 84 00 00 00 00 00 	cs nopw 0x0(%rax,%rax,1)
   16ce0:	66 2e 0f 1f 84 00 00 00 00 00 	cs nopw 0x0(%rax,%rax,1)
   16cea:	66 2e 0f 1f 84 00 00 00 00 00 	cs nopw 0x0(%rax,%rax,1)
   16cf4:	66 2e 0f 1f 84 00 00 00 00 00 	cs nopw 0x0(%rax,%rax,1)
   16cfe:	66 2e 0f 1f 84 00 00 00 00 00 	cs nopw 0x0(%rax,%rax,1)
   16d08:	66 2e 0f 1f 84 00 00 00 00 00 	cs nopw 0x0(%rax,%rax,1)
   16d12:	66 2e 0f 1f 84 00 00 00 00 00 	cs nopw 0x0(%rax,%rax,1)
   16d1c:	66 2e 0f 1f 84 00 00 00 00 00 	cs nopw 0x0(%rax,%rax,1)
   16d26:	66 2e 0f 1f 84 00 00 00 00 00 	cs nopw 0x0(%rax,%rax,1)
   16d30:	66 2e 0f 1f 84 00 00 00 00 00 	cs nopw 0x0(%rax,%rax,1)
   16d3a:	66 2e 0f 1f 84 00 00 00 00 00 	cs nopw 0x0(%rax,%rax,1)
   16d44:	66 2e 0f 1f 84 00 00 00 00 00 	cs nopw 0x0(%rax,%rax,1)
   16d4e:	66 2e 0f 1f 84 00 00 00 00 00 	cs nopw 0x0(%rax,%rax,1)
   16d58:	66 2e 0f 1f 84 00 00 00 00 00 	cs nopw 0x0(%rax,%rax,1)
   16d62:	66 2e 0f 1f 84 00 00 00 00 00 	cs nopw 0x0(%rax,%rax,1)
   16d6c:	66 2e 0f 1f 84 00 00 00 00 00 	cs nopw 0x0(%rax,%rax,1)
   16d76:	66 2e 0f 1f 84 00 00 00 00 00 	cs nopw 0x0(%rax,%rax,1)
   16d80:	66 2e 0f 1f 84 00 00 00 00 00 	cs nopw 0x0(%rax,%rax,1)
   16d8a:	66 2e 0f 1f 84 00 00 00 00 00 	cs nopw 0x0(%rax,%rax,1)
   16d94:	66 2e 0f 1f 84 00 00 00 00 00 	cs nopw 0x0(%rax,%rax,1)
   16d9e:	66 2e 0f 1f 84 00 00 00 00 00 	cs nopw 0x0(%rax,%rax,1)
   16da8:	66 2e 0f 1f 84 00 00 00 00 00 	cs nopw 0x0(%rax,%rax,1)
   16db2:	66 2e 0f 1f 84 00 00 00 00 00 	cs nopw 0x0(%rax,%rax,1)
   16dbc:	66 2e 0f 1f 84 00 00 00 00 00 	cs nopw 0x0(%rax,%rax,1)
   16dc6:	66 2e 0f 1f 84 00 00 00 00 00 	cs nopw 0x0(%rax,%rax,1)
   16dd0:	66 2e 0f 1f 84 00 00 00 00 00 	cs nopw 0x0(%rax,%rax,1)
   16dda:	66 2e 0f 1f 84 00 00 00 00 00 	cs nopw 0x0(%rax,%rax,1)
   16de4:	66 2e 0f 1f 84 00 00 00 00 00 	cs nopw 0x0(%rax,%rax,1)
   16dee:	66 2e 0f 1f 84 00 00 00 00 00 	cs nopw 0x0(%rax,%rax,1)
   16df8:	66 2e 0f 1f 84 00 00 00 00 00 	cs nopw 0x0(%rax,%rax,1)
   16e02:	66 2e 0f 1f 84 00 00 00 00 00 	cs nopw 0x0(%rax,%rax,1)
   16e0c:	66 2e 0f 1f 84 00 00 00 00 00 	cs nopw 0x0(%rax,%rax,1)
   16e16:	66 2e 0f 1f 84 00 00 00 00 00 	cs nopw 0x0(%rax,%rax,1)
   16e20:	66 2e 0f 1f 84 00 00 00 00 00 	cs nopw 0x0(%rax,%rax,1)
   16e2a:	66 2e 0f 1f 84 00 00 00 00 00 	cs nopw 0x0(%rax,%rax,1)
   16e34:	66 2e 0f 1f 84 00 00 00 00 00 	cs nopw 0x0(%rax,%rax,1)
   16e3e:	66 2e 0f 1f 84 00 00 00 00 00 	cs nopw 0x0(%rax,%rax,1)
   16e48:	66 2e 0f 1f 84 00 00 00 00 00 	cs nopw 0x0(%rax,%rax,1)
   16e52:	66 2e 0f 1f 84 00 00 00 00 00 	cs nopw 0x0(%rax,%rax,1)
   16e5c:	66 2e 0f 1f 84 00 00 00 00 00 	cs nopw 0x0(%rax,%rax,1)
   16e66:	66 2e 0f 1f 84 00 00 00 00 00 	cs nopw 0x0(%rax,%rax,1)
   16e70:	66 2e 0f 1f 84 00 00 00 00 00 	cs nopw 0x0(%rax,%rax,1)
   16e7a:	66 2e 0f 1f 84 00 00 00 00 00 	cs nopw 0x0(%rax,%rax,1)
   16e84:	66 2e 0f 1f 84 00 00 00 00 00 	cs nopw 0x0(%rax,%rax,1)
   16e8e:	66 2e 0f 1f 84 00 00 00 00 00 	cs nopw 0x0(%rax,%rax,1)
   16e98:	66 2e 0f 1f 84 00 00 00 00 00 	cs nopw 0x0(%rax,%rax,1)
   16ea2:	66 2e 0f 1f 84 00 00 00 00 00 	cs nopw 0x0(%rax,%rax,1)
   16eac:	66 2e 0f 1f 84 00 00 00 00 00 	cs nopw 0x0(%rax,%rax,1)
   16eb6:	66 2e 0f 1f 84 00 00 00 00 00 	cs nopw 0x0(%rax,%rax,1)
   16ec0:	66 2e 0f 1f 84 00 00 00 00 00 	cs nopw 0x0(%rax,%rax,1)
   16eca:	66 2e 0f 1f 84 00 00 00 00 00 	cs nopw 0x0(%rax,%rax,1)
   16ed4:	66 2e 0f 1f 84 00 00 00 00 00 	cs nopw 0x0(%rax,%rax,1)
   16ede:	66 2e 0f 1f 84 00 00 00 00 00 	cs nopw 0x0(%rax,%rax,1)
   16ee8:	66 2e 0f 1f 84 00 00 00 00 00 	cs nopw 0x0(%rax,%rax,1)
   16ef2:	66 2e 0f 1f 84 00 00 00 00 00 	cs nopw 0x0(%rax,%rax,1)
   16efc:	66 2e 0f 1f 84 00 00 00 00 00 	cs nopw 0x0(%rax,%rax,1)
   16f06:	66 2e 0f 1f 84 00 00 00 00 00 	cs nopw 0x0(%rax,%rax,1)
   16f10:	66 2e 0f 1f 84 00 00 00 00 00 	cs nopw 0x0(%rax,%rax,1)
   16f1a:	66 2e 0f 1f 84 00 00 00 00 00 	cs nopw 0x0(%rax,%rax,1)
   16f24:	66 2e 0f 1f 84 00 00 00 00 00 	cs nopw 0x0(%rax,%rax,1)
   16f2e:	66 2e 0f 1f 84 00 00 00 00 00 	cs nopw 0x0(%rax,%rax,1)
   16f38:	66 2e 0f 1f 84 00 00 00 00 00 	cs nopw 0x0(%rax,%rax,1)
   16f42:	66 2e 0f 1f 84 00 00 00 00 00 	cs nopw 0x0(%rax,%rax,1)
   16f4c:	66 2e 0f 1f 84 00 00 00 00 00 	cs nopw 0x0(%rax,%rax,1)
   16f56:	66 2e 0f 1f 84 00 00 00 00 00 	cs nopw 0x0(%rax,%rax,1)
   16f60:	66 2e 0f 1f 84 00 00 00 00 00 	cs nopw 0x0(%rax,%rax,1)
   16f6a:	66 2e 0f 1f 84 00 00 00 00 00 	cs nopw 0x0(%rax,%rax,1)
   16f74:	66 2e 0f 1f 84 00 00 00 00 00 	cs nopw 0x0(%rax,%rax,1)
   16f7e:	66 2e 0f 1f 84 00 00 00 00 00 	cs nopw 0x0(%rax,%rax,1)
   16f88:	66 2e 0f 1f 84 00 00 00 00 00 	cs nopw 0x0(%rax,%rax,1)
   16f92:	66 2e 0f 1f 84 00 00 00 00 00 	cs nopw 0x0(%rax,%rax,1)
   16f9c:	66 2e 0f 1f 84 00 00 00 00 00 	cs nopw 0x0(%rax,%rax,1)
   16fa6:	66 2e 0f 1f 84 00 00 00 00 00 	cs nopw 0x0(%rax,%rax,1)
   16fb0:	66 2e 0f 1f 84 00 00 00 00 00 	cs nopw 0x0(%rax,%rax,1)
   16fba:	66 2e 0f 1f 84 00 00 00 00 00 	cs nopw 0x0(%rax,%rax,1)
   16fc4:	66 2e 0f 1f 84 00 00 00 00 00 	cs nopw 0x0(%rax,%rax,1)
   16fce:	66 2e 0f 1f 84 00 00 00 00 00 	cs nopw 0x0(%rax,%rax,1)
   16fd8:	66 2e 0f 1f 84 00 00 00 00 00 	cs nopw 0x0(%rax,%rax,1)
   16fe2:	66 2e 0f 1f 84 00 00 00 00 00 	cs nopw 0x0(%rax,%rax,1)
   16fec:	66 2e 0f 1f 84 00 00 00 00 00 	cs nopw 0x0(%rax,%rax,1)
   16ff6:	66 2e 0f 1f 84 00 00 00 00 00 	cs nopw 0x0(%rax,%rax,1)
   17000:	66 2e 0f 1f 84 00 00 00 00 00 	cs nopw 0x0(%rax,%rax,1)
   1700a:	66 2e 0f 1f 84 00 00 00 00 00 	cs nopw 0x0(%rax,%rax,1)
   17014:	66 2e 0f 1f 84 00 00 00 00 00 	cs nopw 0x0(%rax,%rax,1)
   1701e:	66 2e 0f 1f 84 00 00 00 00 00 	cs nopw 0x0(%rax,%rax,1)
   17028:	66 2e 0f 1f 84 00 00 00 00 00 	cs nopw 0x0(%rax,%rax,1)
   17032:	66 2e 0f 1f 84 00 00 00 00 00 	cs nopw 0x0(%rax,%rax,1)
   1703c:	66 2e 0f 1f 84 00 00 00 00 00 	cs nopw 0x0(%rax,%rax,1)
   17046:	66 2e 0f 1f 84 00 00 00 00 00 	cs nopw 0x0(%rax,%rax,1)
   17050:	66 2e 0f 1f 84 00 00 00 00 00 	cs nopw 0x0(%rax,%rax,1)
   1705a:	66 2e 0f 1f 84 00 00 00 00 00 	cs nopw 0x0(%rax,%rax,1)
   17064:	66 2e 0f 1f 84 00 00 00 00 00 	cs nopw 0x0(%rax,%rax,1)
   1706e:	66 2e 0f 1f 84 00 00 00 00 00 	cs nopw 0x0(%rax,%rax,1)
   17078:	66 2e 0f 1f 84 00 00 00 00 00 	cs nopw 0x0(%rax,%rax,1)
   17082:	66 2e 0f 1f 84 00 00 00 00 00 	cs nopw 0x0(%rax,%rax,1)
   1708c:	66 2e 0f 1f 84 00 00 00 00 00 	cs nopw 0x0(%rax,%rax,1)
   17096:	66 2e 0f 1f 84 00 00 00 00 00 	cs nopw 0x0(%rax,%rax,1)
   170a0:	66 2e 0f 1f 84 00 00 00 00 00 	cs nopw 0x0(%rax,%rax,1)
   170aa:	66 2e 0f 1f 84 00 00 00 00 00 	cs nopw 0x0(%rax,%rax,1)
   170b4:	66 2e 0f 1f 84 00 00 00 00 00 	cs nopw 0x0(%rax,%rax,1)
   170be:	66 2e 0f 1f 84 00 00 00 00 00 	cs nopw 0x0(%rax,%rax,1)
   170c8:	66 2e 0f 1f 84 00 00 00 00 00 	cs nopw 0x0(%rax,%rax,1)
   170d2:	66 2e 0f 1f 84 00 00 00 00 00 	cs nopw 0x0(%rax,%rax,1)
   170dc:	66 2e 0f 1f 84 00 00 00 00 00 	cs nopw 0x0(%rax,%rax,1)
   170e6:	66 2e 0f 1f 84 00 00 00 00 00 	cs nopw 0x0(%rax,%rax,1)
   170f0:	66 2e 0f 1f 84 00 00 00 00 00 	cs nopw 0x0(%rax,%rax,1)
   170fa:	66 2e 0f 1f 84 00 00 00 00 00 	cs nopw 0x0(%rax,%rax,1)
   17104:	66 2e 0f 1f 84 00 00 00 00 00 	cs nopw 0x0(%rax,%rax,1)
   1710e:	66 2e 0f 1f 84 00 00 00 00 00 	cs nopw 0x0(%rax,%rax,1)
   17118:	66 2e 0f 1f 84 00 00 00 00 00 	cs nopw 0x0(%rax,%rax,1)
   17122:	66 2e 0f 1f 84 00 00 00 00 00 	cs nopw 0x0(%rax,%rax,1)
   1712c:	66 2e 0f 1f 84 00 00 00 00 00 	cs nopw 0x0(%rax,%rax,1)
   17136:	66 2e 0f 1f 84 00 00 00 00 00 	cs nopw 0x0(%rax,%rax,1)
   17140:	66 2e 0f 1f 84 00 00 00 00 00 	cs nopw 0x0(%rax,%rax,1)
   1714a:	66 2e 0f 1f 84 00 00 00 00 00 	cs nopw 0x0(%rax,%rax,1)
   17154:	66 2e 0f 1f 84 00 00 00 00 00 	cs nopw 0x0(%rax,%rax,1)
   1715e:	66 2e 0f 1f 84 00 00 00 00 00 	cs nopw 0x0(%rax,%rax,1)
   17168:	66 2e 0f 1f 84 00 00 00 00 00 	cs nopw 0x0(%rax,%rax,1)
   17172:	66 2e 0f 1f 84 00 00 00 00 00 	cs nopw 0x0(%rax,%rax,1)
   1717c:	66 2e 0f 1f 84 00 00 00 00 00 	cs nopw 0x0(%rax,%rax,1)
   17186:	66 2e 0f 1f 84 00 00 00 00 00 	cs nopw 0x0(%rax,%rax,1)
   17190:	66 2e 0f 1f 84 00 00 00 00 00 	cs nopw 0x0(%rax,%rax,1)
   1719a:	66 2e 0f 1f 84 00 00 00 00 00 	cs nopw 0x0(%rax,%rax,1)
   171a4:	66 2e 0f 1f 84 00 00 00 00 00 	cs nopw 0x0(%rax,%rax,1)
   171ae:	66 2e 0f 1f 84 00 00 00 00 00 	cs nopw 0x0(%rax,%rax,1)
   171b8:	66 2e 0f 1f 84 00 00 00 00 00 	cs nopw 0x0(%rax,%rax,1)
   171c2:	66 2e 0f 1f 84 00 00 00 00 00 	cs nopw 0x0(%rax,%rax,1)
   171cc:	66 2e 0f 1f 84 00 00 00 00 00 	cs nopw 0x0(%rax,%rax,1)
   171d6:	66 2e 0f 1f 84 00 00 00 00 00 	cs nopw 0x0(%rax,%rax,1)
   171e0:	66 2e 0f 1f 84 00 00 00 00 00 	cs nopw 0x0(%rax,%rax,1)
   171ea:	66 2e 0f 1f 84 00 00 00 00 00 	cs nopw 0x0(%rax,%rax,1)
   171f4:	66 2e 0f 1f 84 00 00 00 00 00 	cs nopw 0x0(%rax,%rax,1)
   171fe:	66 2e 0f 1f 84 00 00 00 00 00 	cs nopw 0x0(%rax,%rax,1)
   17208:	66 2e 0f 1f 84 00 00 00 00 00 	cs nopw 0x0(%rax,%rax,1)
   17212:	66 2e 0f 1f 84 00 00 00 00 00 	cs nopw 0x0(%rax,%rax,1)
   1721c:	66 2e 0f 1f 84 00 00 00 00 00 	cs nopw 0x0(%rax,%rax,1)
   17226:	66 2e 0f 1f 84 00 00 00 00 00 	cs nopw 0x0(%rax,%rax,1)
   17230:	66 2e 0f 1f 84 00 00 00 00 00 	cs nopw 0x0(%rax,%rax,1)
   1723a:	66 2e 0f 1f 84 00 00 00 00 00 	cs nopw 0x0(%rax,%rax,1)
   17244:	66 2e 0f 1f 84 00 00 00 00 00 	cs nopw 0x0(%rax,%rax,1)
   1724e:	66 2e 0f 1f 84 00 00 00 00 00 	cs nopw 0x0(%rax,%rax,1)
   17258:	66 2e 0f 1f 84 00 00 00 00 00 	cs nopw 0x0(%rax,%rax,1)
   17262:	66 2e 0f 1f 84 00 00 00 00 00 	cs nopw 0x0(%rax,%rax,1)
   1726c:	66 2e 0f 1f 84 00 00 00 00 00 	cs nopw 0x0(%rax,%rax,1)
   17276:	66 2e 0f 1f 84 00 00 00 00 00 	cs nopw 0x0(%rax,%rax,1)
   17280:	66 2e 0f 1f 84 00 00 00 00 00 	cs nopw 0x0(%rax,%rax,1)
   1728a:	66 2e 0f 1f 84 00 00 00 00 00 	cs nopw 0x0(%rax,%rax,1)
   17294:	66 2e 0f 1f 84 00 00 00 00 00 	cs nopw 0x0(%rax,%rax,1)
   1729e:	66 2e 0f 1f 84 00 00 00 00 00 	cs nopw 0x0(%rax,%rax,1)
   172a8:	66 2e 0f 1f 84 00 00 00 00 00 	cs nopw 0x0(%rax,%rax,1)
   172b2:	66 2e 0f 1f 84 00 00 00 00 00 	cs nopw 0x0(%rax,%rax,1)
   172bc:	66 2e 0f 1f 84 00 00 00 00 00 	cs nopw 0x0(%rax,%rax,1)
   172c6:	66 2e 0f 1f 84 00 00 00 00 00 	cs nopw 0x0(%rax,%rax,1)
   172d0:	66 2e 0f 1f 84 00 00 00 00 00 	cs nopw 0x0(%rax,%rax,1)
   172da:	66 2e 0f 1f 84 00 00 00 00 00 	cs nopw 0x0(%rax,%rax,1)
   172e4:	66 2e 0f 1f 84 00 00 00 00 00 	cs nopw 0x0(%rax,%rax,1)
   172ee:	66 2e 0f 1f 84 00 00 00 00 00 	cs nopw 0x0(%rax,%rax,1)
   172f8:	66 2e 0f 1f 84 00 00 00 00 00 	cs nopw 0x0(%rax,%rax,1)
   17302:	66 2e 0f 1f 84 00 00 00 00 00 	cs nopw 0x0(%rax,%rax,1)
   1730c:	66 2e 0f 1f 84 00 00 00 00 00 	cs nopw 0x0(%rax,%rax,1)
   17316:	66 2e 0f 1f 84 00 00 00 00 00 	cs nopw 0x0(%rax,%rax,1)
   17320:	66 2e 0f 1f 84 00 00 00 00 00 	cs nopw 0x0(%rax,%rax,1)
   1732a:	66 2e 0f 1f 84 00 00 00 00 00 	cs nopw 0x0(%rax,%rax,1)
   17334:	66 2e 0f 1f 84 00 00 00 00 00 	cs nopw 0x0(%rax,%rax,1)
   1733e:	66 2e 0f 1f 84 00 00 00 00 00 	cs nopw 0x0(%rax,%rax,1)
   17348:	66 2e 0f 1f 84 00 00 00 00 00 	cs nopw 0x0(%rax,%rax,1)
   17352:	66 2e 0f 1f 84 00 00 00 00 00 	cs nopw 0x0(%rax,%rax,1)
   1735c:	66 2e 0f 1f 84 00 00 00 00 00 	cs nopw 0x0(%rax,%rax,1)
   17366:	66 2e 0f 1f 84 00 00 00 00 00 	cs nopw 0x0(%rax,%rax,1)
   17370:	66 2e 0f 1f 84 00 00 00 00 00 	cs nopw 0x0(%rax,%rax,1)
   1737a:	66 2e 0f 1f 84 00 00 00 00 00 	cs nopw 0x0(%rax,%rax,1)
   17384:	66 2e 0f 1f 84 00 00 00 00 00 	cs nopw 0x0(%rax,%rax,1)
   1738e:	66 2e 0f 1f 84 00 00 00 00 00 	cs nopw 0x0(%rax,%rax,1)
   17398:	66 2e 0f 1f 84 00 00 00 00 00 	cs nopw 0x0(%rax,%rax,1)
   173a2:	66 2e 0f 1f 84 00 00 00 00 00 	cs nopw 0x0(%rax,%rax,1)
   173ac:	66 2e 0f 1f 84 00 00 00 00 00 	cs nopw 0x0(%rax,%rax,1)
   173b6:	66 2e 0f 1f 84 00 00 00 00 00 	cs nopw 0x0(%rax,%rax,1)
   173c0:	66 2e 0f 1f 84 00 00 00 00 00 	cs nopw 0x0(%rax,%rax,1)
   173ca:	66 2e 0f 1f 84 00 00 00 00 00 	cs nopw 0x0(%rax,%rax,1)
   173d4:	66 2e 0f 1f 84 00 00 00 00 00 	cs nopw 0x0(%rax,%rax,1)
   173de:	66 2e 0f 1f 84 00 00 00 00 00 	cs nopw 0x0(%rax,%rax,1)
   173e8:	66 2e 0f 1f 84 00 00 00 00 00 	cs nopw 0x0(%rax,%rax,1)
   173f2:	66 2e 0f 1f 84 00 00 00 00 00 	cs nopw 0x0(%rax,%rax,1)
   173fc:	66 2e 0f 1f 84 00 00 00 00 00 	cs nopw 0x0(%rax,%rax,1)
   17406:	66 2e 0f 1f 84 00 00 00 00 00 	cs nopw 0x0(%rax,%rax,1)
   17410:	66 2e 0f 1f 84 00 00 00 00 00 	cs nopw 0x0(%rax,%rax,1)
   1741a:	66 2e 0f 1f 84 00 00 00 00 00 	cs nopw 0x0(%rax,%rax,1)
   17424:	66 2e 0f 1f 84 00 00 00 00 00 	cs nopw 0x0(%rax,%rax,1)
   1742e:	66 2e 0f 1f 84 00 00 00 00 00 	cs nopw 0x0(%rax,%rax,1)
   17438:	66 2e 0f 1f 84 00 00 00 00 00 	cs nopw 0x0(%rax,%rax,1)
   17442:	66 2e 0f 1f 84 00 00 00 00 00 	cs nopw 0x0(%rax,%rax,1)
   1744c:	66 2e 0f 1f 84 00 00 00 00 00 	cs nopw 0x0(%rax,%rax,1)
   17456:	66 2e 0f 1f 84 00 00 00 00 00 	cs nopw 0x0(%rax,%rax,1)
   17460:	66 2e 0f 1f 84 00 00 00 00 00 	cs nopw 0x0(%rax,%rax,1)
   1746a:	66 2e 0f 1f 84 00 00 00 00 00 	cs nopw 0x0(%rax,%rax,1)
   17474:	66 2e 0f 1f 84 00 00 00 00 00 	cs nopw 0x0(%rax,%rax,1)
   1747e:	66 2e 0f 1f 84 00 00 00 00 00 	cs nopw 0x0(%rax,%rax,1)
   17488:	66 2e 0f 1f 84 00 00 00 00 00 	cs nopw 0x0(%rax,%rax,1)
   17492:	66 2e 0f 1f 84 00 00 00 00 00 	cs nopw 0x0(%rax,%rax,1)
   1749c:	66 2e 0f 1f 84 00 00 00 00 00 	cs nopw 0x0(%rax,%rax,1)
   174a6:	66 2e 0f 1f 84 00 00 00 00 00 	cs nopw 0x0(%rax,%rax,1)
   174b0:	66 2e 0f 1f 84 00 00 00 00 00 	cs nopw 0x0(%rax,%rax,1)
   174ba:	66 2e 0f 1f 84 00 00 00 00 00 	cs nopw 0x0(%rax,%rax,1)
   174c4:	66 2e 0f 1f 84 00 00 00 00 00 	cs nopw 0x0(%rax,%rax,1)
   174ce:	66 2e 0f 1f 84 00 00 00 00 00 	cs nopw 0x0(%rax,%rax,1)
   174d8:	66 2e 0f 1f 84 00 00 00 00 00 	cs nopw 0x0(%rax,%rax,1)
   174e2:	66 2e 0f 1f 84 00 00 00 00 00 	cs nopw 0x0(%rax,%rax,1)
   174ec:	66 2e 0f 1f 84 00 00 00 00 00 	cs nopw 0x0(%rax,%rax,1)
   174f6:	66 2e 0f 1f 84 00 00 00 00 00 	cs nopw 0x0(%rax,%rax,1)
   17500:	66 2e 0f 1f 84 00 00 00 00 00 	cs nopw 0x0(%rax,%rax,1)
   1750a:	66 2e 0f 1f 84 00 00 00 00 00 	cs nopw 0x0(%rax,%rax,1)
   17514:	66 2e 0f 1f 84 00 00 00 00 00 	cs nopw 0x0(%rax,%rax,1)
   1751e:	66 2e 0f 1f 84 00 00 00 00 00 	cs nopw 0x0(%rax,%rax,1)
   17528:	66 2e 0f 1f 84 00 00 00 00 00 	cs nopw 0x0(%rax,%rax,1)
   17532:	66 2e 0f 1f 84 00 00 00 00 00 	cs nopw 0x0(%rax,%rax,1)
   1753c:	66 2e 0f 1f 84 00 00 00 00 00 	cs nopw 0x0(%rax,%rax,1)
   17546:	66 2e 0f 1f 84 00 00 00 00 00 	cs nopw 0x0(%rax,%rax,1)
   17550:	66 2e 0f 1f 84 00 00 00 00 00 	cs nopw 0x0(%rax,%rax,1)
   1755a:	66 2e 0f 1f 84 00 00 00 00 00 	cs nopw 0x0(%rax,%rax,1)
   17564:	66 2e 0f 1f 84 00 00 00 00 00 	cs nopw 0x0(%rax,%rax,1)
   1756e:	66 2e 0f 1f 84 00 00 00 00 00 	cs nopw 0x0(%rax,%rax,1)
   17578:	66 2e 0f 1f 84 00 00 00 00 00 	cs nopw 0x0(%rax,%rax,1)
   17582:	66 2e 0f 1f 84 00 00 00 00 00 	cs nopw 0x0(%rax,%rax,1)
   1758c:	66 2e 0f 1f 84 00 00 00 00 00 	cs nopw 0x0(%rax,%rax,1)
   17596:	66 2e 0f 1f 84 00 00 00 00 00 	cs nopw 0x0(%rax,%rax,1)
   175a0:	66 2e 0f 1f 84 00 00 00 00 00 	cs nopw 0x0(%rax,%rax,1)
   175aa:	66 2e 0f 1f 84 00 00 00 00 00 	cs nopw 0x0(%rax,%rax,1)
   175b4:	66 2e 0f 1f 84 00 00 00 00 00 	cs nopw 0x0(%rax,%rax,1)
   175be:	66 2e 0f 1f 84 00 00 00 00 00 	cs nopw 0x0(%rax,%rax,1)
   175c8:	66 2e 0f 1f 84 00 00 00 00 00 	cs nopw 0x0(%rax,%rax,1)
   175d2:	66 2e 0f 1f 84 00 00 00 00 00 	cs nopw 0x0(%rax,%rax,1)
   175dc:	66 2e 0f 1f 84 00 00 00 00 00 	cs nopw 0x0(%rax,%rax,1)
   175e6:	66 2e 0f 1f 84 00 00 00 00 00 	cs nopw 0x0(%rax,%rax,1)
   175f0:	66 2e 0f 1f 84 00 00 00 00 00 	cs nopw 0x0(%rax,%rax,1)
   175fa:	66 2e 0f 1f 84 00 00 00 00 00 	cs nopw 0x0(%rax,%rax,1)
   17604:	66 2e 0f 1f 84 00 00 00 00 00 	cs nopw 0x0(%rax,%rax,1)
   1760e:	66 2e 0f 1f 84 00 00 00 00 00 	cs nopw 0x0(%rax,%rax,1)
   17618:	66 2e 0f 1f 84 00 00 00 00 00 	cs nopw 0x0(%rax,%rax,1)
   17622:	66 2e 0f 1f 84 00 00 00 00 00 	cs nopw 0x0(%rax,%rax,1)
   1762c:	66 2e 0f 1f 84 00 00 00 00 00 	cs nopw 0x0(%rax,%rax,1)
   17636:	66 2e 0f 1f 84 00 00 00 00 00 	cs nopw 0x0(%rax,%rax,1)
   17640:	66 2e 0f 1f 84 00 00 00 00 00 	cs nopw 0x0(%rax,%rax,1)
   1764a:	66 2e 0f 1f 84 00 00 00 00 00 	cs nopw 0x0(%rax,%rax,1)
   17654:	66 2e 0f 1f 84 00 00 00 00 00 	cs nopw 0x0(%rax,%rax,1)
   1765e:	66 2e 0f 1f 84 00 00 00 00 00 	cs nopw 0x0(%rax,%rax,1)
   17668:	66 2e 0f 1f 84 00 00 00 00 00 	cs nopw 0x0(%rax,%rax,1)
   17672:	66 2e 0f 1f 84 00 00 00 00 00 	cs nopw 0x0(%rax,%rax,1)
   1767c:	66 2e 0f 1f 84 00 00 00 00 00 	cs nopw 0x0(%rax,%rax,1)
   17686:	66 2e 0f 1f 84 00 00 00 00 00 	cs nopw 0x0(%rax,%rax,1)
   17690:	66 2e 0f 1f 84 00 00 00 00 00 	cs nopw 0x0(%rax,%rax,1)
   1769a:	66 2e 0f 1f 84 00 00 00 00 00 	cs nopw 0x0(%rax,%rax,1)
   176a4:	66 2e 0f 1f 84 00 00 00 00 00 	cs nopw 0x0(%rax,%rax,1)
   176ae:	66 2e 0f 1f 84 00 00 00 00 00 	cs nopw 0x0(%rax,%rax,1)
   176b8:	66 2e 0f 1f 84 00 00 00 00 00 	cs nopw 0x0(%rax,%rax,1)
   176c2:	66 2e 0f 1f 84 00 00 00 00 00 	cs nopw 0x0(%rax,%rax,1)
   176cc:	66 2e 0f 1f 84 00 00 00 00 00 	cs nopw 0x0(%rax,%rax,1)
   176d6:	66 2e 0f 1f 84 00 00 00 00 00 	cs nopw 0x0(%rax,%rax,1)
   176e0:	66 2e 0f 1f 84 00 00 00 00 00 	cs nopw 0x0(%rax,%rax,1)
   176ea:	66 2e 0f 1f 84 00 00 00 00 00 	cs nopw 0x0(%rax,%rax,1)
   176f4:	66 2e 0f 1f 84 00 00 00 00 00 	cs nopw 0x0(%rax,%rax,1)
   176fe:	66 2e 0f 1f 84 00 00 00 00 00 	cs nopw 0x0(%rax,%rax,1)
   17708:	66 2e 0f 1f 84 00 00 00 00 00 	cs nopw 0x0(%rax,%rax,1)
   17712:	66 2e 0f 1f 84 00 00 00 00 00 	cs nopw 0x0(%rax,%rax,1)
   1771c:	66 2e 0f 1f 84 00 00 00 00 00 	cs nopw 0x0(%rax,%rax,1)
   17726:	66 2e 0f 1f 84 00 00 00 00 00 	cs nopw 0x0(%rax,%rax,1)
   17730:	66 2e 0f 1f 84 00 00 00 00 00 	cs nopw 0x0(%rax,%rax,1)
   1773a:	66 2e 0f 1f 84 00 00 00 00 00 	cs nopw 0x0(%rax,%rax,1)
   17744:	66 2e 0f 1f 84 00 00 00 00 00 	cs nopw 0x0(%rax,%rax,1)
   1774e:	66 2e 0f 1f 84 00 00 00 00 00 	cs nopw 0x0(%rax,%rax,1)
   17758:	66 2e 0f 1f 84 00 00 00 00 00 	cs nopw 0x0(%rax,%rax,1)
   17762:	66 2e 0f 1f 84 00 00 00 00 00 	cs nopw 0x0(%rax,%rax,1)
   1776c:	66 2e 0f 1f 84 00 00 00 00 00 	cs nopw 0x0(%rax,%rax,1)
   17776:	66 2e 0f 1f 84 00 00 00 00 00 	cs nopw 0x0(%rax,%rax,1)
   17780:	66 2e 0f 1f 84 00 00 00 00 00 	cs nopw 0x0(%rax,%rax,1)
   1778a:	66 2e 0f 1f 84 00 00 00 00 00 	cs nopw 0x0(%rax,%rax,1)
   17794:	66 2e 0f 1f 84 00 00 00 00 00 	cs nopw 0x0(%rax,%rax,1)
   1779e:	66 2e 0f 1f 84 00 00 00 00 00 	cs nopw 0x0(%rax,%rax,1)
   177a8:	66 2e 0f 1f 84 00 00 00 00 00 	cs nopw 0x0(%rax,%rax,1)
   177b2:	66 2e 0f 1f 84 00 00 00 00 00 	cs nopw 0x0(%rax,%rax,1)
   177bc:	66 2e 0f 1f 84 00 00 00 00 00 	cs nopw 0x0(%rax,%rax,1)
   177c6:	66 2e 0f 1f 84 00 00 00 00 00 	cs nopw 0x0(%rax,%rax,1)
   177d0:	66 2e 0f 1f 84 00 00 00 00 00 	cs nopw 0x0(%rax,%rax,1)
   177da:	66 2e 0f 1f 84 00 00 00 00 00 	cs nopw 0x0(%rax,%rax,1)
   177e4:	66 2e 0f 1f 84 00 00 00 00 00 	cs nopw 0x0(%rax,%rax,1)
   177ee:	66 2e 0f 1f 84 00 00 00 00 00 	cs nopw 0x0(%rax,%rax,1)
   177f8:	66 2e 0f 1f 84 00 00 00 00 00 	cs nopw 0x0(%rax,%rax,1)
   17802:	66 2e 0f 1f 84 00 00 00 00 00 	cs nopw 0x0(%rax,%rax,1)
   1780c:	66 2e 0f 1f 84 00 00 00 00 00 	cs nopw 0x0(%rax,%rax,1)
   17816:	66 2e 0f 1f 84 00 00 00 00 00 	cs nopw 0x0(%rax,%rax,1)
   17820:	66 2e 0f 1f 84 00 00 00 00 00 	cs nopw 0x0(%rax,%rax,1)
   1782a:	66 2e 0f 1f 84 00 00 00 00 00 	cs nopw 0x0(%rax,%rax,1)
   17834:	66 2e 0f 1f 84 00 00 00 00 00 	cs nopw 0x0(%rax,%rax,1)
   1783e:	66 2e 0f 1f 84 00 00 00 00 00 	cs nopw 0x0(%rax,%rax,1)
   17848:	66 2e 0f 1f 84 00 00 00 00 00 	cs nopw 0x0(%rax,%rax,1)
   17852:	66 2e 0f 1f 84 00 00 00 00 00 	cs nopw 0x0(%rax,%rax,1)
   1785c:	66 2e 0f 1f 84 00 00 00 00 00 	cs nopw 0x0(%rax,%rax,1)
   17866:	66 2e 0f 1f 84 00 00 00 00 00 	cs nopw 0x0(%rax,%rax,1)
   17870:	66 2e 0f 1f 84 00 00 00 00 00 	cs nopw 0x0(%rax,%rax,1)
   1787a:	66 2e 0f 1f 84 00 00 00 00 00 	cs nopw 0x0(%rax,%rax,1)
   17884:	66 2e 0f 1f 84 00 00 00 00 00 	cs nopw 0x0(%rax,%rax,1)
   1788e:	66 2e 0f 1f 84 00 00 00 00 00 	cs nopw 0x0(%rax,%rax,1)
   17898:	66 2e 0f 1f 84 00 00 00 00 00 	cs nopw 0x0(%rax,%rax,1)
   178a2:	66 2e 0f 1f 84 00 00 00 00 00 	cs nopw 0x0(%rax,%rax,1)
   178ac:	66 2e 0f 1f 84 00 00 00 00 00 	cs nopw 0x0(%rax,%rax,1)
   178b6:	66 2e 0f 1f 84 00 00 00 00 00 	cs nopw 0x0(%rax,%rax,1)
   178c0:	66 2e 0f 1f 84 00 00 00 00 00 	cs nopw 0x0(%rax,%rax,1)
   178ca:	66 2e 0f 1f 84 00 00 00 00 00 	cs nopw 0x0(%rax,%rax,1)
   178d4:	66 2e 0f 1f 84 00 00 00 00 00 	cs nopw 0x0(%rax,%rax,1)
   178de:	66 2e 0f 1f 84 00 00 00 00 00 	cs nopw 0x0(%rax,%rax,1)
   178e8:	66 2e 0f 1f 84 00 00 00 00 00 	cs nopw 0x0(%rax,%rax,1)
   178f2:	66 2e 0f 1f 84 00 00 00 00 00 	cs nopw 0x0(%rax,%rax,1)
   178fc:	66 2e 0f 1f 84 00 00 00 00 00 	cs nopw 0x0(%rax,%rax,1)
   17906:	66 2e 0f 1f 84 00 00 00 00 00 	cs nopw 0x0(%rax,%rax,1)
   17910:	66 2e 0f 1f 84 00 00 00 00 00 	cs nopw 0x0(%rax,%rax,1)
   1791a:	66 2e 0f 1f 84 00 00 00 00 00 	cs nopw 0x0(%rax,%rax,1)
   17924:	66 2e 0f 1f 84 00 00 00 00 00 	cs nopw 0x0(%rax,%rax,1)
   1792e:	66 2e 0f 1f 84 00 00 00 00 00 	cs nopw 0x0(%rax,%rax,1)
   17938:	66 2e 0f 1f 84 00 00 00 00 00 	cs nopw 0x0(%rax,%rax,1)
   17942:	66 2e 0f 1f 84 00 00 00 00 00 	cs nopw 0x0(%rax,%rax,1)
   1794c:	66 2e 0f 1f 84 00 00 00 00 00 	cs nopw 0x0(%rax,%rax,1)
   17956:	66 2e 0f 1f 84 00 00 00 00 00 	cs nopw 0x0(%rax,%rax,1)
   17960:	66 2e 0f 1f 84 00 00 00 00 00 	cs nopw 0x0(%rax,%rax,1)
   1796a:	66 2e 0f 1f 84 00 00 00 00 00 	cs nopw 0x0(%rax,%rax,1)
   17974:	66 2e 0f 1f 84 00 00 00 00 00 	cs nopw 0x0(%rax,%rax,1)
   1797e:	66 2e 0f 1f 84 00 00 00 00 00 	cs nopw 0x0(%rax,%rax,1)
   17988:	66 2e 0f 1f 84 00 00 00 00 00 	cs nopw 0x0(%rax,%rax,1)
   17992:	66 2e 0f 1f 84 00 00 00 00 00 	cs nopw 0x0(%rax,%rax,1)
   1799c:	66 2e 0f 1f 84 00 00 00 00 00 	cs nopw 0x0(%rax,%rax,1)
   179a6:	66 2e 0f 1f 84 00 00 00 00 00 	cs nopw 0x0(%rax,%rax,1)
   179b0:	66 2e 0f 1f 84 00 00 00 00 00 	cs nopw 0x0(%rax,%rax,1)
   179ba:	66 2e 0f 1f 84 00 00 00 00 00 	cs nopw 0x0(%rax,%rax,1)
   179c4:	66 2e 0f 1f 84 00 00 00 00 00 	cs nopw 0x0(%rax,%rax,1)
   179ce:	66 2e 0f 1f 84 00 00 00 00 00 	cs nopw 0x0(%rax,%rax,1)
   179d8:	66 2e 0f 1f 84 00 00 00 00 00 	cs nopw 0x0(%rax,%rax,1)
   179e2:	66 2e 0f 1f 84 00 00 00 00 00 	cs nopw 0x0(%rax,%rax,1)
   179ec:	66 2e 0f 1f 84 00 00 00 00 00 	cs nopw 0x0(%rax,%rax,1)
   179f6:	66 2e 0f 1f 84 00 00 00 00 00 	cs nopw 0x0(%rax,%rax,1)
   17a00:	66 2e 0f 1f 84 00 00 00 00 00 	cs nopw 0x0(%rax,%rax,1)
   17a0a:	66 2e 0f 1f 84 00 00 00 00 00 	cs nopw 0x0(%rax,%rax,1)
   17a14:	66 2e 0f 1f 84 00 00 00 00 00 	cs nopw 0x0(%rax,%rax,1)
   17a1e:	66 2e 0f 1f 84 00 00 00 00 00 	cs nopw 0x0(%rax,%rax,1)
   17a28:	66 2e 0f 1f 84 00 00 00 00 00 	cs nopw 0x0(%rax,%rax,1)
   17a32:	66 2e 0f 1f 84 00 00 00 00 00 	cs nopw 0x0(%rax,%rax,1)
   17a3c:	66 2e 0f 1f 84 00 00 00 00 00 	cs nopw 0x0(%rax,%rax,1)
   17a46:	66 2e 0f 1f 84 00 00 00 00 00 	cs nopw 0x0(%rax,%rax,1)
   17a50:	66 2e 0f 1f 84 00 00 00 00 00 	cs nopw 0x0(%rax,%rax,1)
   17a5a:	66 2e 0f 1f 84 00 00 00 00 00 	cs nopw 0x0(%rax,%rax,1)
   17a64:	66 2e 0f 1f 84 00 00 00 00 00 	cs nopw 0x0(%rax,%rax,1)
   17a6e:	66 2e 0f 1f 84 00 00 00 00 00 	cs nopw 0x0(%rax,%rax,1)
   17a78:	66 2e 0f 1f 84 00 00 00 00 00 	cs nopw 0x0(%rax,%rax,1)
   17a82:	66 2e 0f 1f 84 00 00 00 00 00 	cs nopw 0x0(%rax,%rax,1)
   17a8c:	66 2e 0f 1f 84 00 00 00 00 00 	cs nopw 0x0(%rax,%rax,1)
   17a96:	66 2e 0f 1f 84 00 00 00 00 00 	cs nopw 0x0(%rax,%rax,1)
   17aa0:	66 2e 0f 1f 84 00 00 00 00 00 	cs nopw 0x0(%rax,%rax,1)
   17aaa:	66 2e 0f 1f 84 00 00 00 00 00 	cs nopw 0x0(%rax,%rax,1)
   17ab4:	66 2e 0f 1f 84 00 00 00 00 00 	cs nopw 0x0(%rax,%rax,1)
   17abe:	66 2e 0f 1f 84 00 00 00 00 00 	cs nopw 0x0(%rax,%rax,1)
   17ac8:	66 2e 0f 1f 84 00 00 00 00 00 	cs nopw 0x0(%rax,%rax,1)
   17ad2:	66 2e 0f 1f 84 00 00 00 00 00 	cs nopw 0x0(%rax,%rax,1)
   17adc:	66 2e 0f 1f 84 00 00 00 00 00 	cs nopw 0x0(%rax,%rax,1)
   17ae6:	66 2e 0f 1f 84 00 00 00 00 00 	cs nopw 0x0(%rax,%rax,1)
   17af0:	66 2e 0f 1f 84 00 00 00 00 00 	cs nopw 0x0(%rax,%rax,1)
   17afa:	66 2e 0f 1f 84 00 00 00 00 00 	cs nopw 0x0(%rax,%rax,1)
   17b04:	66 2e 0f 1f 84 00 00 00 00 00 	cs nopw 0x0(%rax,%rax,1)
   17b0e:	66 2e 0f 1f 84 00 00 00 00 00 	cs nopw 0x0(%rax,%rax,1)
   17b18:	66 2e 0f 1f 84 00 00 00 00 00 	cs nopw 0x0(%rax,%rax,1)
   17b22:	66 2e 0f 1f 84 00 00 00 00 00 	cs nopw 0x0(%rax,%rax,1)
   17b2c:	66 2e 0f 1f 84 00 00 00 00 00 	cs nopw 0x0(%rax,%rax,1)
   17b36:	66 2e 0f 1f 84 00 00 00 00 00 	cs nopw 0x0(%rax,%rax,1)
   17b40:	66 2e 0f 1f 84 00 00 00 00 00 	cs nopw 0x0(%rax,%rax,1)
   17b4a:	66 2e 0f 1f 84 00 00 00 00 00 	cs nopw 0x0(%rax,%rax,1)
   17b54:	66 2e 0f 1f 84 00 00 00 00 00 	cs nopw 0x0(%rax,%rax,1)
   17b5e:	66 2e 0f 1f 84 00 00 00 00 00 	cs nopw 0x0(%rax,%rax,1)
   17b68:	66 2e 0f 1f 84 00 00 00 00 00 	cs nopw 0x0(%rax,%rax,1)
   17b72:	66 2e 0f 1f 84 00 00 00 00 00 	cs nopw 0x0(%rax,%rax,1)
   17b7c:	66 2e 0f 1f 84 00 00 00 00 00 	cs nopw 0x0(%rax,%rax,1)
   17b86:	66 2e 0f 1f 84 00 00 00 00 00 	cs nopw 0x0(%rax,%rax,1)
   17b90:	66 2e 0f 1f 84 00 00 00 00 00 	cs nopw 0x0(%rax,%rax,1)
   17b9a:	66 2e 0f 1f 84 00 00 00 00 00 	cs nopw 0x0(%rax,%rax,1)
   17ba4:	66 2e 0f 1f 84 00 00 00 00 00 	cs nopw 0x0(%rax,%rax,1)
   17bae:	66 2e 0f 1f 84 00 00 00 00 00 	cs nopw 0x0(%rax,%rax,1)
   17bb8:	66 2e 0f 1f 84 00 00 00 00 00 	cs nopw 0x0(%rax,%rax,1)
   17bc2:	66 2e 0f 1f 84 00 00 00 00 00 	cs nopw 0x0(%rax,%rax,1)
   17bcc:	66 2e 0f 1f 84 00 00 00 00 00 	cs nopw 0x0(%rax,%rax,1)
   17bd6:	66 2e 0f 1f 84 00 00 00 00 00 	cs nopw 0x0(%rax,%rax,1)
   17be0:	66 2e 0f 1f 84 00 00 00 00 00 	cs nopw 0x0(%rax,%rax,1)
   17bea:	66 2e 0f 1f 84 00 00 00 00 00 	cs nopw 0x0(%rax,%rax,1)
   17bf4:	66 2e 0f 1f 84 00 00 00 00 00 	cs nopw 0x0(%rax,%rax,1)
   17bfe:	66 2e 0f 1f 84 00 00 00 00 00 	cs nopw 0x0(%rax,%rax,1)
   17c08:	66 2e 0f 1f 84 00 00 00 00 00 	cs nopw 0x0(%rax,%rax,1)
   17c12:	66 2e 0f 1f 84 00 00 00 00 00 	cs nopw 0x0(%rax,%rax,1)
   17c1c:	66 2e 0f 1f 84 00 00 00 00 00 	cs nopw 0x0(%rax,%rax,1)
   17c26:	66 2e 0f 1f 84 00 00 00 00 00 	cs nopw 0x0(%rax,%rax,1)
   17c30:	66 2e 0f 1f 84 00 00 00 00 00 	cs nopw 0x0(%rax,%rax,1)
   17c3a:	66 2e 0f 1f 84 00 00 00 00 00 	cs nopw 0x0(%rax,%rax,1)
   17c44:	66 2e 0f 1f 84 00 00 00 00 00 	cs nopw 0x0(%rax,%rax,1)
   17c4e:	66 2e 0f 1f 84 00 00 00 00 00 	cs nopw 0x0(%rax,%rax,1)
   17c58:	66 2e 0f 1f 84 00 00 00 00 00 	cs nopw 0x0(%rax,%rax,1)
   17c62:	66 2e 0f 1f 84 00 00 00 00 00 	cs nopw 0x0(%rax,%rax,1)
   17c6c:	66 2e 0f 1f 84 00 00 00 00 00 	cs nopw 0x0(%rax,%rax,1)
   17c76:	66 2e 0f 1f 84 00 00 00 00 00 	cs nopw 0x0(%rax,%rax,1)
   17c80:	66 2e 0f 1f 84 00 00 00 00 00 	cs nopw 0x0(%rax,%rax,1)
   17c8a:	66 2e 0f 1f 84 00 00 00 00 00 	cs nopw 0x0(%rax,%rax,1)
   17c94:	66 2e 0f 1f 84 00 00 00 00 00 	cs nopw 0x0(%rax,%rax,1)
   17c9e:	66 2e 0f 1f 84 00 00 00 00 00 	cs nopw 0x0(%rax,%rax,1)
   17ca8:	66 2e 0f 1f 84 00 00 00 00 00 	cs nopw 0x0(%rax,%rax,1)
   17cb2:	66 2e 0f 1f 84 00 00 00 00 00 	cs nopw 0x0(%rax,%rax,1)
   17cbc:	66 2e 0f 1f 84 00 00 00 00 00 	cs nopw 0x0(%rax,%rax,1)
   17cc6:	66 2e 0f 1f 84 00 00 00 00 00 	cs nopw 0x0(%rax,%rax,1)
   17cd0:	66 2e 0f 1f 84 00 00 00 00 00 	cs nopw 0x0(%rax,%rax,1)
   17cda:	66 2e 0f 1f 84 00 00 00 00 00 	cs nopw 0x0(%rax,%rax,1)
   17ce4:	66 2e 0f 1f 84 00 00 00 00 00 	cs nopw 0x0(%rax,%rax,1)
   17cee:	66 2e 0f 1f 84 00 00 00 00 00 	cs nopw 0x0(%rax,%rax,1)
   17cf8:	66 2e 0f 1f 84 00 00 00 00 00 	cs nopw 0x0(%rax,%rax,1)
   17d02:	66 2e 0f 1f 84 00 00 00 00 00 	cs nopw 0x0(%rax,%rax,1)
   17d0c:	66 2e 0f 1f 84 00 00 00 00 00 	cs nopw 0x0(%rax,%rax,1)
   17d16:	66 2e 0f 1f 84 00 00 00 00 00 	cs nopw 0x0(%rax,%rax,1)
   17d20:	66 2e 0f 1f 84 00 00 00 00 00 	cs nopw 0x0(%rax,%rax,1)
   17d2a:	66 2e 0f 1f 84 00 00 00 00 00 	cs nopw 0x0(%rax,%rax,1)
   17d34:	66 2e 0f 1f 84 00 00 00 00 00 	cs nopw 0x0(%rax,%rax,1)
   17d3e:	66 2e 0f 1f 84 00 00 00 00 00 	cs nopw 0x0(%rax,%rax,1)
   17d48:	66 2e 0f 1f 84 00 00 00 00 00 	cs nopw 0x0(%rax,%rax,1)
   17d52:	66 2e 0f 1f 84 00 00 00 00 00 	cs nopw 0x0(%rax,%rax,1)
   17d5c:	66 2e 0f 1f 84 00 00 00 00 00 	cs nopw 0x0(%rax,%rax,1)
   17d66:	66 2e 0f 1f 84 00 00 00 00 00 	cs nopw 0x0(%rax,%rax,1)
   17d70:	66 2e 0f 1f 84 00 00 00 00 00 	cs nopw 0x0(%rax,%rax,1)
   17d7a:	66 2e 0f 1f 84 00 00 00 00 00 	cs nopw 0x0(%rax,%rax,1)
   17d84:	66 2e 0f 1f 84 00 00 00 00 00 	cs nopw 0x0(%rax,%rax,1)
   17d8e:	66 2e 0f 1f 84 00 00 00 00 00 	cs nopw 0x0(%rax,%rax,1)
   17d98:	66 2e 0f 1f 84 00 00 00 00 00 	cs nopw 0x0(%rax,%rax,1)
   17da2:	66 2e 0f 1f 84 00 00 00 00 00 	cs nopw 0x0(%rax,%rax,1)
   17dac:	66 2e 0f 1f 84 00 00 00 00 00 	cs nopw 0x0(%rax,%rax,1)
   17db6:	66 2e 0f 1f 84 00 00 00 00 00 	cs nopw 0x0(%rax,%rax,1)
   17dc0:	66 2e 0f 1f 84 00 00 00 00 00 	cs nopw 0x0(%rax,%rax,1)
   17dca:	66 2e 0f 1f 84 00 00 00 00 00 	cs nopw 0x0(%rax,%rax,1)
   17dd4:	66 2e 0f 1f 84 00 00 00 00 00 	cs nopw 0x0(%rax,%rax,1)
   17dde:	66 2e 0f 1f 84 00 00 00 00 00 	cs nopw 0x0(%rax,%rax,1)
   17de8:	66 2e 0f 1f 84 00 00 00 00 00 	cs nopw 0x0(%rax,%rax,1)
   17df2:	66 2e 0f 1f 84 00 00 00 00 00 	cs nopw 0x0(%rax,%rax,1)
   17dfc:	66 2e 0f 1f 84 00 00 00 00 00 	cs nopw 0x0(%rax,%rax,1)
   17e06:	66 2e 0f 1f 84 00 00 00 00 00 	cs nopw 0x0(%rax,%rax,1)
   17e10:	66 2e 0f 1f 84 00 00 00 00 00 	cs nopw 0x0(%rax,%rax,1)
   17e1a:	66 2e 0f 1f 84 00 00 00 00 00 	cs nopw 0x0(%rax,%rax,1)
   17e24:	66 2e 0f 1f 84 00 00 00 00 00 	cs nopw 0x0(%rax,%rax,1)
   17e2e:	66 2e 0f 1f 84 00 00 00 00 00 	cs nopw 0x0(%rax,%rax,1)
   17e38:	66 2e 0f 1f 84 00 00 00 00 00 	cs nopw 0x0(%rax,%rax,1)
   17e42:	66 2e 0f 1f 84 00 00 00 00 00 	cs nopw 0x0(%rax,%rax,1)
   17e4c:	66 2e 0f 1f 84 00 00 00 00 00 	cs nopw 0x0(%rax,%rax,1)
   17e56:	66 2e 0f 1f 84 00 00 00 00 00 	cs nopw 0x0(%rax,%rax,1)
   17e60:	66 2e 0f 1f 84 00 00 00 00 00 	cs nopw 0x0(%rax,%rax,1)
   17e6a:	66 2e 0f 1f 84 00 00 00 00 00 	cs nopw 0x0(%rax,%rax,1)
   17e74:	66 2e 0f 1f 84 00 00 00 00 00 	cs nopw 0x0(%rax,%rax,1)
   17e7e:	66 2e 0f 1f 84 00 00 00 00 00 	cs nopw 0x0(%rax,%rax,1)
   17e88:	66 2e 0f 1f 84 00 00 00 00 00 	cs nopw 0x0(%rax,%rax,1)
   17e92:	66 2e 0f 1f 84 00 00 00 00 00 	cs nopw 0x0(%rax,%rax,1)
   17e9c:	66 2e 0f 1f 84 00 00 00 00 00 	cs nopw 0x0(%rax,%rax,1)
   17ea6:	66 2e 0f 1f 84 00 00 00 00 00 	cs nopw 0x0(%rax,%rax,1)
   17eb0:	66 2e 0f 1f 84 00 00 00 00 00 	cs nopw 0x0(%rax,%rax,1)
   17eba:	66 2e 0f 1f 84 00 00 00 00 00 	cs nopw 0x0(%rax,%rax,1)
   17ec4:	66 2e 0f 1f 84 00 00 00 00 00 	cs nopw 0x0(%rax,%rax,1)
   17ece:	66 2e 0f 1f 84 00 00 00 00 00 	cs nopw 0x0(%rax,%rax,1)
   17ed8:	66 2e 0f 1f 84 00 00 00 00 00 	cs nopw 0x0(%rax,%rax,1)
   17ee2:	66 2e 0f 1f 84 00 00 00 00 00 	cs nopw 0x0(%rax,%rax,1)
   17eec:	66 2e 0f 1f 84 00 00 00 00 00 	cs nopw 0x0(%rax,%rax,1)
   17ef6:	66 2e 0f 1f 84 00 00 00 00 00 	cs nopw 0x0(%rax,%rax,1)
   17f00:	66 2e 0f 1f 84 00 00 00 00 00 	cs nopw 0x0(%rax,%rax,1)
   17f0a:	66 2e 0f 1f 84 00 00 00 00 00 	cs nopw 0x0(%rax,%rax,1)
   17f14:	66 2e 0f 1f 84 00 00 00 00 00 	cs nopw 0x0(%rax,%rax,1)
   17f1e:	66 2e 0f 1f 84 00 00 00 00 00 	cs nopw 0x0(%rax,%rax,1)
   17f28:	66 2e 0f 1f 84 00 00 00 00 00 	cs nopw 0x0(%rax,%rax,1)
   17f32:	66 2e 0f 1f 84 00 00 00 00 00 	cs nopw 0x0(%rax,%rax,1)
   17f3c:	66 2e 0f 1f 84 00 00 00 00 00 	cs nopw 0x0(%rax,%rax,1)
   17f46:	66 2e 0f 1f 84 00 00 00 00 00 	cs nopw 0x0(%rax,%rax,1)
   17f50:	66 2e 0f 1f 84 00 00 00 00 00 	cs nopw 0x0(%rax,%rax,1)
   17f5a:	66 2e 0f 1f 84 00 00 00 00 00 	cs nopw 0x0(%rax,%rax,1)
   17f64:	66 2e 0f 1f 84 00 00 00 00 00 	cs nopw 0x0(%rax,%rax,1)
   17f6e:	66 2e 0f 1f 84 00 00 00 00 00 	cs nopw 0x0(%rax,%rax,1)
   17f78:	66 2e 0f 1f 84 00 00 00 00 00 	cs nopw 0x0(%rax,%rax,1)
   17f82:	66 2e 0f 1f 84 00 00 00 00 00 	cs nopw 0x0(%rax,%rax,1)
   17f8c:	66 2e 0f 1f 84 00 00 00 00 00 	cs nopw 0x0(%rax,%rax,1)
   17f96:	66 2e 0f 1f 84 00 00 00 00 00 	cs nopw 0x0(%rax,%rax,1)
   17fa0:	66 2e 0f 1f 84 00 00 00 00 00 	cs nopw 0x0(%rax,%rax,1)
   17faa:	66 2e 0f 1f 84 00 00 00 00 00 	cs nopw 0x0(%rax,%rax,1)
   17fb4:	66 2e 0f 1f 84 00 00 00 00 00 	cs nopw 0x0(%rax,%rax,1)
   17fbe:	66 2e 0f 1f 84 00 00 00 00 00 	cs nopw 0x0(%rax,%rax,1)
   17fc8:	66 2e 0f 1f 84 00 00 00 00 00 	cs nopw 0x0(%rax,%rax,1)
   17fd2:	66 2e 0f 1f 84 00 00 00 00 00 	cs nopw 0x0(%rax,%rax,1)
   17fdc:	66 2e 0f 1f 84 00 00 00 00 00 	cs nopw 0x0(%rax,%rax,1)
   17fe6:	66 2e 0f 1f 84 00 00 00 00 00 	cs nopw 0x0(%rax,%rax,1)
   17ff0:	66 2e 0f 1f 84 00 00 00 00 00 	cs nopw 0x0(%rax,%rax,1)
   17ffa:	66 2e 0f 1f 84 00 00 00 00 00 	cs nopw 0x0(%rax,%rax,1)
   18004:	66 2e 0f 1f 84 00 00 00 00 00 	cs nopw 0x0(%rax,%rax,1)
   1800e:	66 2e 0f 1f 84 00 00 00 00 00 	cs nopw 0x0(%rax,%rax,1)
   18018:	66 2e 0f 1f 84 00 00 00 00 00 	cs nopw 0x0(%rax,%rax,1)
   18022:	66 2e 0f 1f 84 00 00 00 00 00 	cs nopw 0x0(%rax,%rax,1)
   1802c:	66 2e 0f 1f 84 00 00 00 00 00 	cs nopw 0x0(%rax,%rax,1)
   18036:	66 2e 0f 1f 84 00 00 00 00 00 	cs nopw 0x0(%rax,%rax,1)
   18040:	66 2e 0f 1f 84 00 00 00 00 00 	cs nopw 0x0(%rax,%rax,1)
   1804a:	66 2e 0f 1f 84 00 00 00 00 00 	cs nopw 0x0(%rax,%rax,1)
   18054:	66 2e 0f 1f 84 00 00 00 00 00 	cs nopw 0x0(%rax,%rax,1)
   1805e:	66 2e 0f 1f 84 00 00 00 00 00 	cs nopw 0x0(%rax,%rax,1)
   18068:	66 2e 0f 1f 84 00 00 00 00 00 	cs nopw 0x0(%rax,%rax,1)
   18072:	66 2e 0f 1f 84 00 00 00 00 00 	cs nopw 0x0(%rax,%rax,1)
   1807c:	66 2e 0f 1f 84 00 00 00 00 00 	cs nopw 0x0(%rax,%rax,1)
   18086:	66 2e 0f 1f 84 00 00 00 00 00 	cs nopw 0x0(%rax,%rax,1)
   18090:	66 2e 0f 1f 84 00 00 00 00 00 	cs nopw 0x0(%rax,%rax,1)
   1809a:	66 2e 0f 1f 84 00 00 00 00 00 	cs nopw 0x0(%rax,%rax,1)
   180a4:	66 2e 0f 1f 84 00 00 00 00 00 	cs nopw 0x0(%rax,%rax,1)
   180ae:	66 2e 0f 1f 84 00 00 00 00 00 	cs nopw 0x0(%rax,%rax,1)
   180b8:	66 2e 0f 1f 84 00 00 00 00 00 	cs nopw 0x0(%rax,%rax,1)
   180c2:	66 2e 0f 1f 84 00 00 00 00 00 	cs nopw 0x0(%rax,%rax,1)
   180cc:	66 2e 0f 1f 84 00 00 00 00 00 	cs nopw 0x0(%rax,%rax,1)
   180d6:	66 2e 0f 1f 84 00 00 00 00 00 	cs nopw 0x0(%rax,%rax,1)
   180e0:	66 2e 0f 1f 84 00 00 00 00 00 	cs nopw 0x0(%rax,%rax,1)
   180ea:	66 2e 0f 1f 84 00 00 00 00 00 	cs nopw 0x0(%rax,%rax,1)
   180f4:	66 2e 0f 1f 84 00 00 00 00 00 	cs nopw 0x0(%rax,%rax,1)
   180fe:	66 2e 0f 1f 84 00 00 00 00 00 	cs nopw 0x0(%rax,%rax,1)
   18108:	66 2e 0f 1f 84 00 00 00 00 00 	cs nopw 0x0(%rax,%rax,1)
   18112:	66 2e 0f 1f 84 00 00 00 00 00 	cs nopw 0x0(%rax,%rax,1)
   1811c:	66 2e 0f 1f 84 00 00 00 00 00 	cs nopw 0x0(%rax,%rax,1)
   18126:	66 2e 0f 1f 84 00 00 00 00 00 	cs nopw 0x0(%rax,%rax,1)
   18130:	66 2e 0f 1f 84 00 00 00 00 00 	cs nopw 0x0(%rax,%rax,1)
   1813a:	66 2e 0f 1f 84 00 00 00 00 00 	cs nopw 0x0(%rax,%rax,1)
   18144:	66 2e 0f 1f 84 00 00 00 00 00 	cs nopw 0x0(%rax,%rax,1)
   1814e:	66 2e 0f 1f 84 00 00 00 00 00 	cs nopw 0x0(%rax,%rax,1)
   18158:	66 2e 0f 1f 84 00 00 00 00 00 	cs nopw 0x0(%rax,%rax,1)
   18162:	66 2e 0f 1f 84 00 00 00 00 00 	cs nopw 0x0(%rax,%rax,1)
   1816c:	66 2e 0f 1f 84 00 00 00 00 00 	cs nopw 0x0(%rax,%rax,1)
   18176:	66 2e 0f 1f 84 00 00 00 00 00 	cs nopw 0x0(%rax,%rax,1)
   18180:	66 2e 0f 1f 84 00 00 00 00 00 	cs nopw 0x0(%rax,%rax,1)
   1818a:	66 2e 0f 1f 84 00 00 00 00 00 	cs nopw 0x0(%rax,%rax,1)
   18194:	66 2e 0f 1f 84 00 00 00 00 00 	cs nopw 0x0(%rax,%rax,1)
   1819e:	66 2e 0f 1f 84 00 00 00 00 00 	cs nopw 0x0(%rax,%rax,1)
   181a8:	66 2e 0f 1f 84 00 00 00 00 00 	cs nopw 0x0(%rax,%rax,1)
   181b2:	66 2e 0f 1f 84 00 00 00 00 00 	cs nopw 0x0(%rax,%rax,1)
   181bc:	66 2e 0f 1f 84 00 00 00 00 00 	cs nopw 0x0(%rax,%rax,1)
   181c6:	66 2e 0f 1f 84 00 00 00 00 00 	cs nopw 0x0(%rax,%rax,1)
   181d0:	66 2e 0f 1f 84 00 00 00 00 00 	cs nopw 0x0(%rax,%rax,1)
   181da:	66 2e 0f 1f 84 00 00 00 00 00 	cs nopw 0x0(%rax,%rax,1)
   181e4:	66 2e 0f 1f 84 00 00 00 00 00 	cs nopw 0x0(%rax,%rax,1)
   181ee:	66 2e 0f 1f 84 00 00 00 00 00 	cs nopw 0x0(%rax,%rax,1)
   181f8:	66 2e 0f 1f 84 00 00 00 00 00 	cs nopw 0x0(%rax,%rax,1)
   18202:	66 2e 0f 1f 84 00 00 00 00 00 	cs nopw 0x0(%rax,%rax,1)
   1820c:	66 2e 0f 1f 84 00 00 00 00 00 	cs nopw 0x0(%rax,%rax,1)
   18216:	66 2e 0f 1f 84 00 00 00 00 00 	cs nopw 0x0(%rax,%rax,1)
   18220:	66 2e 0f 1f 84 00 00 00 00 00 	cs nopw 0x0(%rax,%rax,1)
   1822a:	66 2e 0f 1f 84 00 00 00 00 00 	cs nopw 0x0(%rax,%rax,1)
   18234:	66 2e 0f 1f 84 00 00 00 00 00 	cs nopw 0x0(%rax,%rax,1)
   1823e:	66 2e 0f 1f 84 00 00 00 00 00 	cs nopw 0x0(%rax,%rax,1)
   18248:	66 2e 0f 1f 84 00 00 00 00 00 	cs nopw 0x0(%rax,%rax,1)
   18252:	66 2e 0f 1f 84 00 00 00 00 00 	cs nopw 0x0(%rax,%rax,1)
   1825c:	66 2e 0f 1f 84 00 00 00 00 00 	cs nopw 0x0(%rax,%rax,1)
   18266:	66 2e 0f 1f 84 00 00 00 00 00 	cs nopw 0x0(%rax,%rax,1)
   18270:	66 2e 0f 1f 84 00 00 00 00 00 	cs nopw 0x0(%rax,%rax,1)
   1827a:	66 2e 0f 1f 84 00 00 00 00 00 	cs nopw 0x0(%rax,%rax,1)
   18284:	66 2e 0f 1f 84 00 00 00 00 00 	cs nopw 0x0(%rax,%rax,1)
   1828e:	66 2e 0f 1f 84 00 00 00 00 00 	cs nopw 0x0(%rax,%rax,1)
   18298:	66 2e 0f 1f 84 00 00 00 00 00 	cs nopw 0x0(%rax,%rax,1)
   182a2:	66 2e 0f 1f 84 00 00 00 00 00 	cs nopw 0x0(%rax,%rax,1)
   182ac:	66 2e 0f 1f 84 00 00 00 00 00 	cs nopw 0x0(%rax,%rax,1)
   182b6:	66 2e 0f 1f 84 00 00 00 00 00 	cs nopw 0x0(%rax,%rax,1)
   182c0:	66 2e 0f 1f 84 00 00 00 00 00 	cs nopw 0x0(%rax,%rax,1)
   182ca:	66 2e 0f 1f 84 00 00 00 00 00 	cs nopw 0x0(%rax,%rax,1)
   182d4:	66 2e 0f 1f 84 00 00 00 00 00 	cs nopw 0x0(%rax,%rax,1)
   182de:	66 2e 0f 1f 84 00 00 00 00 00 	cs nopw 0x0(%rax,%rax,1)
   182e8:	66 2e 0f 1f 84 00 00 00 00 00 	cs nopw 0x0(%rax,%rax,1)
   182f2:	66 2e 0f 1f 84 00 00 00 00 00 	cs nopw 0x0(%rax,%rax,1)
   182fc:	66 2e 0f 1f 84 00 00 00 00 00 	cs nopw 0x0(%rax,%rax,1)
   18306:	66 2e 0f 1f 84 00 00 00 00 00 	cs nopw 0x0(%rax,%rax,1)
   18310:	66 2e 0f 1f 84 00 00 00 00 00 	cs nopw 0x0(%rax,%rax,1)
   1831a:	66 2e 0f 1f 84 00 00 00 00 00 	cs nopw 0x0(%rax,%rax,1)
   18324:	66 2e 0f 1f 84 00 00 00 00 00 	cs nopw 0x0(%rax,%rax,1)
   1832e:	66 2e 0f 1f 84 00 00 00 00 00 	cs nopw 0x0(%rax,%rax,1)
   18338:	66 2e 0f 1f 84 00 00 00 00 00 	cs nopw 0x0(%rax,%rax,1)
   18342:	66 2e 0f 1f 84 00 00 00 00 00 	cs nopw 0x0(%rax,%rax,1)
   1834c:	66 2e 0f 1f 84 00 00 00 00 00 	cs nopw 0x0(%rax,%rax,1)
   18356:	66 2e 0f 1f 84 00 00 00 00 00 	cs nopw 0x0(%rax,%rax,1)
   18360:	66 2e 0f 1f 84 00 00 00 00 00 	cs nopw 0x0(%rax,%rax,1)
   1836a:	66 2e 0f 1f 84 00 00 00 00 00 	cs nopw 0x0(%rax,%rax,1)
   18374:	66 2e 0f 1f 84 00 00 00 00 00 	cs nopw 0x0(%rax,%rax,1)
   1837e:	66 2e 0f 1f 84 00 00 00 00 00 	cs nopw 0x0(%rax,%rax,1)
   18388:	66 2e 0f 1f 84 00 00 00 00 00 	cs nopw 0x0(%rax,%rax,1)
   18392:	66 2e 0f 1f 84 00 00 00 00 00 	cs nopw 0x0(%rax,%rax,1)
   1839c:	66 2e 0f 1f 84 00 00 00 00 00 	cs nopw 0x0(%rax,%rax,1)
   183a6:	66 2e 0f 1f 84 00 00 00 00 00 	cs nopw 0x0(%rax,%rax,1)
   183b0:	66 2e 0f 1f 84 00 00 00 00 00 	cs nopw 0x0(%rax,%rax,1)
   183ba:	66 2e 0f 1f 84 00 00 00 00 00 	cs nopw 0x0(%rax,%rax,1)
   183c4:	66 2e 0f 1f 84 00 00 00 00 00 	cs nopw 0x0(%rax,%rax,1)
   183ce:	66 2e 0f 1f 84 00 00 00 00 00 	cs nopw 0x0(%rax,%rax,1)
   183d8:	66 2e 0f 1f 84 00 00 00 00 00 	cs nopw 0x0(%rax,%rax,1)
   183e2:	66 2e 0f 1f 84 00 00 00 00 00 	cs nopw 0x0(%rax,%rax,1)
   183ec:	66 2e 0f 1f 84 00 00 00 00 00 	cs nopw 0x0(%rax,%rax,1)
   183f6:	66 2e 0f 1f 84 00 00 00 00 00 	cs nopw 0x0(%rax,%rax,1)
   18400:	66 2e 0f 1f 84 00 00 00 00 00 	cs nopw 0x0(%rax,%rax,1)
   1840a:	66 2e 0f 1f 84 00 00 00 00 00 	cs nopw 0x0(%rax,%rax,1)
   18414:	66 2e 0f 1f 84 00 00 00 00 00 	cs nopw 0x0(%rax,%rax,1)
   1841e:	66 2e 0f 1f 84 00 00 00 00 00 	cs nopw 0x0(%rax,%rax,1)
   18428:	66 2e 0f 1f 84 00 00 00 00 00 	cs nopw 0x0(%rax,%rax,1)
   18432:	66 2e 0f 1f 84 00 00 00 00 00 	cs nopw 0x0(%rax,%rax,1)
   1843c:	66 2e 0f 1f 84 00 00 00 00 00 	cs nopw 0x0(%rax,%rax,1)
   18446:	66 2e 0f 1f 84 00 00 00 00 00 	cs nopw 0x0(%rax,%rax,1)
   18450:	66 2e 0f 1f 84 00 00 00 00 00 	cs nopw 0x0(%rax,%rax,1)
   1845a:	66 2e 0f 1f 84 00 00 00 00 00 	cs nopw 0x0(%rax,%rax,1)
   18464:	66 2e 0f 1f 84 00 00 00 00 00 	cs nopw 0x0(%rax,%rax,1)
   1846e:	66 2e 0f 1f 84 00 00 00 00 00 	cs nopw 0x0(%rax,%rax,1)
   18478:	66 2e 0f 1f 84 00 00 00 00 00 	cs nopw 0x0(%rax,%rax,1)
   18482:	66 2e 0f 1f 84 00 00 00 00 00 	cs nopw 0x0(%rax,%rax,1)
   1848c:	66 2e 0f 1f 84 00 00 00 00 00 	cs nopw 0x0(%rax,%rax,1)
   18496:	66 2e 0f 1f 84 00 00 00 00 00 	cs nopw 0x0(%rax,%rax,1)
   184a0:	66 2e 0f 1f 84 00 00 00 00 00 	cs nopw 0x0(%rax,%rax,1)
   184aa:	66 2e 0f 1f 84 00 00 00 00 00 	cs nopw 0x0(%rax,%rax,1)
   184b4:	66 2e 0f 1f 84 00 00 00 00 00 	cs nopw 0x0(%rax,%rax,1)
   184be:	66 2e 0f 1f 84 00 00 00 00 00 	cs nopw 0x0(%rax,%rax,1)
   184c8:	66 2e 0f 1f 84 00 00 00 00 00 	cs nopw 0x0(%rax,%rax,1)
   184d2:	66 2e 0f 1f 84 00 00 00 00 00 	cs nopw 0x0(%rax,%rax,1)
   184dc:	66 2e 0f 1f 84 00 00 00 00 00 	cs nopw 0x0(%rax,%rax,1)
   184e6:	66 2e 0f 1f 84 00 00 00 00 00 	cs nopw 0x0(%rax,%rax,1)
   184f0:	66 2e 0f 1f 84 00 00 00 00 00 	cs nopw 0x0(%rax,%rax,1)
   184fa:	66 2e 0f 1f 84 00 00 00 00 00 	cs nopw 0x0(%rax,%rax,1)
   18504:	66 2e 0f 1f 84 00 00 00 00 00 	cs nopw 0x0(%rax,%rax,1)
   1850e:	66 2e 0f 1f 84 00 00 00 00 00 	cs nopw 0x0(%rax,%rax,1)
   18518:	66 2e 0f 1f 84 00 00 00 00 00 	cs nopw 0x0(%rax,%rax,1)
   18522:	66 2e 0f 1f 84 00 00 00 00 00 	cs nopw 0x0(%rax,%rax,1)
   1852c:	66 2e 0f 1f 84 00 00 00 00 00 	cs nopw 0x0(%rax,%rax,1)
   18536:	66 2e 0f 1f 84 00 00 00 00 00 	cs nopw 0x0(%rax,%rax,1)
   18540:	66 2e 0f 1f 84 00 00 00 00 00 	cs nopw 0x0(%rax,%rax,1)
   1854a:	66 2e 0f 1f 84 00 00 00 00 00 	cs nopw 0x0(%rax,%rax,1)
   18554:	66 2e 0f 1f 84 00 00 00 00 00 	cs nopw 0x0(%rax,%rax,1)
   1855e:	66 2e 0f 1f 84 00 00 00 00 00 	cs nopw 0x0(%rax,%rax,1)
   18568:	66 2e 0f 1f 84 00 00 00 00 00 	cs nopw 0x0(%rax,%rax,1)
   18572:	66 2e 0f 1f 84 00 00 00 00 00 	cs nopw 0x0(%rax,%rax,1)
   1857c:	66 2e 0f 1f 84 00 00 00 00 00 	cs nopw 0x0(%rax,%rax,1)
   18586:	66 2e 0f 1f 84 00 00 00 00 00 	cs nopw 0x0(%rax,%rax,1)
   18590:	66 2e 0f 1f 84 00 00 00 00 00 	cs nopw 0x0(%rax,%rax,1)
   1859a:	66 2e 0f 1f 84 00 00 00 00 00 	cs nopw 0x0(%rax,%rax,1)
   185a4:	66 2e 0f 1f 84 00 00 00 00 00 	cs nopw 0x0(%rax,%rax,1)
   185ae:	66 2e 0f 1f 84 00 00 00 00 00 	cs nopw 0x0(%rax,%rax,1)
   185b8:	66 2e 0f 1f 84 00 00 00 00 00 	cs nopw 0x0(%rax,%rax,1)
   185c2:	66 2e 0f 1f 84 00 00 00 00 00 	cs nopw 0x0(%rax,%rax,1)
   185cc:	66 2e 0f 1f 84 00 00 00 00 00 	cs nopw 0x0(%rax,%rax,1)
   185d6:	66 2e 0f 1f 84 00 00 00 00 00 	cs nopw 0x0(%rax,%rax,1)
   185e0:	66 2e 0f 1f 84 00 00 00 00 00 	cs nopw 0x0(%rax,%rax,1)
   185ea:	66 2e 0f 1f 84 00 00 00 00 00 	cs nopw 0x0(%rax,%rax,1)
   185f4:	66 2e 0f 1f 84 00 00 00 00 00 	cs nopw 0x0(%rax,%rax,1)
   185fe:	66 2e 0f 1f 84 00 00 00 00 00 	cs nopw 0x0(%rax,%rax,1)
   18608:	66 2e 0f 1f 84 00 00 00 00 00 	cs nopw 0x0(%rax,%rax,1)
   18612:	66 2e 0f 1f 84 00 00 00 00 00 	cs nopw 0x0(%rax,%rax,1)
   1861c:	66 2e 0f 1f 84 00 00 00 00 00 	cs nopw 0x0(%rax,%rax,1)
   18626:	66 2e 0f 1f 84 00 00 00 00 00 	cs nopw 0x0(%rax,%rax,1)
   18630:	66 2e 0f 1f 84 00 00 00 00 00 	cs nopw 0x0(%rax,%rax,1)
   1863a:	66 2e 0f 1f 84 00 00 00 00 00 	cs nopw 0x0(%rax,%rax,1)
   18644:	66 2e 0f 1f 84 00 00 00 00 00 	cs nopw 0x0(%rax,%rax,1)
   1864e:	66 2e 0f 1f 84 00 00 00 00 00 	cs nopw 0x0(%rax,%rax,1)
   18658:	66 2e 0f 1f 84 00 00 00 00 00 	cs nopw 0x0(%rax,%rax,1)
   18662:	66 2e 0f 1f 84 00 00 00 00 00 	cs nopw 0x0(%rax,%rax,1)
   1866c:	66 2e 0f 1f 84 00 00 00 00 00 	cs nopw 0x0(%rax,%rax,1)
   18676:	66 2e 0f 1f 84 00 00 00 00 00 	cs nopw 0x0(%rax,%rax,1)
   18680:	66 2e 0f 1f 84 00 00 00 00 00 	cs nopw 0x0(%rax,%rax,1)
   1868a:	66 2e 0f 1f 84 00 00 00 00 00 	cs nopw 0x0(%rax,%rax,1)
   18694:	66 2e 0f 1f 84 00 00 00 00 00 	cs nopw 0x0(%rax,%rax,1)
   1869e:	66 2e 0f 1f 84 00 00 00 00 00 	cs nopw 0x0(%rax,%rax,1)
   186a8:	66 2e 0f 1f 84 00 00 00 00 00 	cs nopw 0x0(%rax,%rax,1)
   186b2:	66 2e 0f 1f 84 00 00 00 00 00 	cs nopw 0x0(%rax,%rax,1)
   186bc:	66 2e 0f 1f 84 00 00 00 00 00 	cs nopw 0x0(%rax,%rax,1)
   186c6:	66 2e 0f 1f 84 00 00 00 00 00 	cs nopw 0x0(%rax,%rax,1)
   186d0:	66 2e 0f 1f 84 00 00 00 00 00 	cs nopw 0x0(%rax,%rax,1)
   186da:	66 2e 0f 1f 84 00 00 00 00 00 	cs nopw 0x0(%rax,%rax,1)
   186e4:	66 2e 0f 1f 84 00 00 00 00 00 	cs nopw 0x0(%rax,%rax,1)
   186ee:	66 2e 0f 1f 84 00 00 00 00 00 	cs nopw 0x0(%rax,%rax,1)
   186f8:	66 2e 0f 1f 84 00 00 00 00 00 	cs nopw 0x0(%rax,%rax,1)
   18702:	66 2e 0f 1f 84 00 00 00 00 00 	cs nopw 0x0(%rax,%rax,1)
   1870c:	66 2e 0f 1f 84 00 00 00 00 00 	cs nopw 0x0(%rax,%rax,1)
   18716:	66 2e 0f 1f 84 00 00 00 00 00 	cs nopw 0x0(%rax,%rax,1)
   18720:	66 2e 0f 1f 84 00 00 00 00 00 	cs nopw 0x0(%rax,%rax,1)
   1872a:	66 2e 0f 1f 84 00 00 00 00 00 	cs nopw 0x0(%rax,%rax,1)
   18734:	66 2e 0f 1f 84 00 00 00 00 00 	cs nopw 0x0(%rax,%rax,1)
   1873e:	66 2e 0f 1f 84 00 00 00 00 00 	cs nopw 0x0(%rax,%rax,1)
   18748:	66 2e 0f 1f 84 00 00 00 00 00 	cs nopw 0x0(%rax,%rax,1)
   18752:	66 2e 0f 1f 84 00 00 00 00 00 	cs nopw 0x0(%rax,%rax,1)
   1875c:	66 2e 0f 1f 84 00 00 00 00 00 	cs nopw 0x0(%rax,%rax,1)
   18766:	66 2e 0f 1f 84 00 00 00 00 00 	cs nopw 0x0(%rax,%rax,1)
   18770:	66 2e 0f 1f 84 00 00 00 00 00 	cs nopw 0x0(%rax,%rax,1)
   1877a:	66 2e 0f 1f 84 00 00 00 00 00 	cs nopw 0x0(%rax,%rax,1)
   18784:	66 2e 0f 1f 84 00 00 00 00 00 	cs nopw 0x0(%rax,%rax,1)
   1878e:	66 2e 0f 1f 84 00 00 00 00 00 	cs nopw 0x0(%rax,%rax,1)
   18798:	66 2e 0f 1f 84 00 00 00 00 00 	cs nopw 0x0(%rax,%rax,1)
   187a2:	66 2e 0f 1f 84 00 00 00 00 00 	cs nopw 0x0(%rax,%rax,1)
   187ac:	66 2e 0f 1f 84 00 00 00 00 00 	cs nopw 0x0(%rax,%rax,1)
   187b6:	66 2e 0f 1f 84 00 00 00 00 00 	cs nopw 0x0(%rax,%rax,1)
   187c0:	66 2e 0f 1f 84 00 00 00 00 00 	cs nopw 0x0(%rax,%rax,1)
   187ca:	66 2e 0f 1f 84 00 00 00 00 00 	cs nopw 0x0(%rax,%rax,1)
   187d4:	66 2e 0f 1f 84 00 00 00 00 00 	cs nopw 0x0(%rax,%rax,1)
   187de:	66 2e 0f 1f 84 00 00 00 00 00 	cs nopw 0x0(%rax,%rax,1)
   187e8:	66 2e 0f 1f 84 00 00 00 00 00 	cs nopw 0x0(%rax,%rax,1)
   187f2:	66 2e 0f 1f 84 00 00 00 00 00 	cs nopw 0x0(%rax,%rax,1)
   187fc:	66 2e 0f 1f 84 00 00 00 00 00 	cs nopw 0x0(%rax,%rax,1)
   18806:	66 2e 0f 1f 84 00 00 00 00 00 	cs nopw 0x0(%rax,%rax,1)
   18810:	66 2e 0f 1f 84 00 00 00 00 00 	cs nopw 0x0(%rax,%rax,1)
   1881a:	66 2e 0f 1f 84 00 00 00 00 00 	cs nopw 0x0(%rax,%rax,1)
   18824:	66 2e 0f 1f 84 00 00 00 00 00 	cs nopw 0x0(%rax,%rax,1)
   1882e:	66 2e 0f 1f 84 00 00 00 00 00 	cs nopw 0x0(%rax,%rax,1)
   18838:	66 2e 0f 1f 84 00 00 00 00 00 	cs nopw 0x0(%rax,%rax,1)
   18842:	66 2e 0f 1f 84 00 00 00 00 00 	cs nopw 0x0(%rax,%rax,1)
   1884c:	66 2e 0f 1f 84 00 00 00 00 00 	cs nopw 0x0(%rax,%rax,1)
   18856:	66 2e 0f 1f 84 00 00 00 00 00 	cs nopw 0x0(%rax,%rax,1)
   18860:	66 2e 0f 1f 84 00 00 00 00 00 	cs nopw 0x0(%rax,%rax,1)
   1886a:	66 2e 0f 1f 84 00 00 00 00 00 	cs nopw 0x0(%rax,%rax,1)
   18874:	66 2e 0f 1f 84 00 00 00 00 00 	cs nopw 0x0(%rax,%rax,1)
   1887e:	66 2e 0f 1f 84 00 00 00 00 00 	cs nopw 0x0(%rax,%rax,1)
   18888:	66 2e 0f 1f 84 00 00 00 00 00 	cs nopw 0x0(%rax,%rax,1)
   18892:	66 2e 0f 1f 84 00 00 00 00 00 	cs nopw 0x0(%rax,%rax,1)
   1889c:	66 2e 0f 1f 84 00 00 00 00 00 	cs nopw 0x0(%rax,%rax,1)
   188a6:	66 2e 0f 1f 84 00 00 00 00 00 	cs nopw 0x0(%rax,%rax,1)
   188b0:	66 2e 0f 1f 84 00 00 00 00 00 	cs nopw 0x0(%rax,%rax,1)
   188ba:	66 2e 0f 1f 84 00 00 00 00 00 	cs nopw 0x0(%rax,%rax,1)
   188c4:	66 2e 0f 1f 84 00 00 00 00 00 	cs nopw 0x0(%rax,%rax,1)
   188ce:	66 2e 0f 1f 84 00 00 00 00 00 	cs nopw 0x0(%rax,%rax,1)
   188d8:	66 2e 0f 1f 84 00 00 00 00 00 	cs nopw 0x0(%rax,%rax,1)
   188e2:	66 2e 0f 1f 84 00 00 00 00 00 	cs nopw 0x0(%rax,%rax,1)
   188ec:	66 2e 0f 1f 84 00 00 00 00 00 	cs nopw 0x0(%rax,%rax,1)
   188f6:	66 2e 0f 1f 84 00 00 00 00 00 	cs nopw 0x0(%rax,%rax,1)
   18900:	66 2e 0f 1f 84 00 00 00 00 00 	cs nopw 0x0(%rax,%rax,1)
   1890a:	66 2e 0f 1f 84 00 00 00 00 00 	cs nopw 0x0(%rax,%rax,1)
   18914:	66 2e 0f 1f 84 00 00 00 00 00 	cs nopw 0x0(%rax,%rax,1)
   1891e:	66 2e 0f 1f 84 00 00 00 00 00 	cs nopw 0x0(%rax,%rax,1)
   18928:	66 2e 0f 1f 84 00 00 00 00 00 	cs nopw 0x0(%rax,%rax,1)
   18932:	66 2e 0f 1f 84 00 00 00 00 00 	cs nopw 0x0(%rax,%rax,1)
   1893c:	66 2e 0f 1f 84 00 00 00 00 00 	cs nopw 0x0(%rax,%rax,1)
   18946:	66 2e 0f 1f 84 00 00 00 00 00 	cs nopw 0x0(%rax,%rax,1)
   18950:	66 2e 0f 1f 84 00 00 00 00 00 	cs nopw 0x0(%rax,%rax,1)
   1895a:	66 2e 0f 1f 84 00 00 00 00 00 	cs nopw 0x0(%rax,%rax,1)
   18964:	66 2e 0f 1f 84 00 00 00 00 00 	cs nopw 0x0(%rax,%rax,1)
   1896e:	66 2e 0f 1f 84 00 00 00 00 00 	cs nopw 0x0(%rax,%rax,1)
   18978:	66 2e 0f 1f 84 00 00 00 00 00 	cs nopw 0x0(%rax,%rax,1)
   18982:	66 2e 0f 1f 84 00 00 00 00 00 	cs nopw 0x0(%rax,%rax,1)
   1898c:	66 2e 0f 1f 84 00 00 00 00 00 	cs nopw 0x0(%rax,%rax,1)
   18996:	66 2e 0f 1f 84 00 00 00 00 00 	cs nopw 0x0(%rax,%rax,1)
   189a0:	66 2e 0f 1f 84 00 00 00 00 00 	cs nopw 0x0(%rax,%rax,1)
   189aa:	66 2e 0f 1f 84 00 00 00 00 00 	cs nopw 0x0(%rax,%rax,1)
   189b4:	66 2e 0f 1f 84 00 00 00 00 00 	cs nopw 0x0(%rax,%rax,1)
   189be:	66 2e 0f 1f 84 00 00 00 00 00 	cs nopw 0x0(%rax,%rax,1)
   189c8:	66 2e 0f 1f 84 00 00 00 00 00 	cs nopw 0x0(%rax,%rax,1)
   189d2:	66 2e 0f 1f 84 00 00 00 00 00 	cs nopw 0x0(%rax,%rax,1)
   189dc:	66 2e 0f 1f 84 00 00 00 00 00 	cs nopw 0x0(%rax,%rax,1)
   189e6:	66 2e 0f 1f 84 00 00 00 00 00 	cs nopw 0x0(%rax,%rax,1)
   189f0:	66 2e 0f 1f 84 00 00 00 00 00 	cs nopw 0x0(%rax,%rax,1)
   189fa:	66 2e 0f 1f 84 00 00 00 00 00 	cs nopw 0x0(%rax,%rax,1)
   18a04:	66 2e 0f 1f 84 00 00 00 00 00 	cs nopw 0x0(%rax,%rax,1)
   18a0e:	66 2e 0f 1f 84 00 00 00 00 00 	cs nopw 0x0(%rax,%rax,1)
   18a18:	66 2e 0f 1f 84 00 00 00 00 00 	cs nopw 0x0(%rax,%rax,1)
   18a22:	66 2e 0f 1f 84 00 00 00 00 00 	cs nopw 0x0(%rax,%rax,1)
   18a2c:	66 2e 0f 1f 84 00 00 00 00 00 	cs nopw 0x0(%rax,%rax,1)
   18a36:	66 2e 0f 1f 84 00 00 00 00 00 	cs nopw 0x0(%rax,%rax,1)
   18a40:	66 2e 0f 1f 84 00 00 00 00 00 	cs nopw 0x0(%rax,%rax,1)
   18a4a:	66 2e 0f 1f 84 00 00 00 00 00 	cs nopw 0x0(%rax,%rax,1)
